
Optional file libmchp_peripheral.a not found

Optional file libmchp_peripheral_32MX795F512L.a not found
Archive member included because of file (symbol)

c:/program files (x86)/microchip/xc32/v1.40/bin/bin/../../lib/gcc/pic32mx/4.8.3/../../../../pic32mx/lib\libpic32.a(memcpy.o)
                              build/configRover/debug/_ext/184327166/queue.o (memcpy)
c:/program files (x86)/microchip/xc32/v1.40/bin/bin/../../lib/gcc/pic32mx/4.8.3/../../../../pic32mx/lib\libpic32.a(memset.o)
                              build/configRover/debug/_ext/184327166/tasks.o (memset)
c:/program files (x86)/microchip/xc32/v1.40/bin/bin/../../lib/gcc/pic32mx/4.8.3/../../../../pic32mx/lib\libpic32.a(default-bootstrap-exception-handler.o)
                              c:/program files (x86)/microchip/xc32/v1.40/bin/bin/../../lib/gcc/pic32mx/4.8.3/../../../../pic32mx/lib/./proc/32MX795F512L/crt0_mips32r2.o (_bootstrap_exception_handler)
c:/program files (x86)/microchip/xc32/v1.40/bin/bin/../../lib/gcc/pic32mx/4.8.3/../../../../pic32mx/lib\libpic32.a(default-on-reset.o)
                              c:/program files (x86)/microchip/xc32/v1.40/bin/bin/../../lib/gcc/pic32mx/4.8.3/../../../../pic32mx/lib/./proc/32MX795F512L/crt0_mips32r2.o (_on_reset)
c:/program files (x86)/microchip/xc32/v1.40/bin/bin/../../lib/gcc/pic32mx/4.8.3/../../../../pic32mx/lib\libpic32.a(default-on-bootstrap.o)
                              c:/program files (x86)/microchip/xc32/v1.40/bin/bin/../../lib/gcc/pic32mx/4.8.3/../../../../pic32mx/lib/./proc/32MX795F512L/crt0_mips32r2.o (_on_bootstrap)
c:/program files (x86)/microchip/xc32/v1.40/bin/bin/../../lib/gcc/pic32mx/4.8.3/../../../../pic32mx/lib\libpic32.a(default-nmi-handler.o)
                              c:/program files (x86)/microchip/xc32/v1.40/bin/bin/../../lib/gcc/pic32mx/4.8.3/../../../../pic32mx/lib/./proc/32MX795F512L/crt0_mips32r2.o (_nmi_handler)
c:/program files (x86)/microchip/xc32/v1.40/bin/bin/../../lib/gcc/pic32mx/4.8.3/../../../../pic32mx/lib\libpic32.a(general-exception.o)
                              c:/program files (x86)/microchip/xc32/v1.40/bin/bin/../../lib/gcc/pic32mx/4.8.3/../../../../pic32mx/lib/./proc/32MX795F512L/crt0_mips32r2.o (_general_exception_context)
c:/program files (x86)/microchip/xc32/v1.40/bin/bin/../../lib/gcc/pic32mx/4.8.3/../../../../pic32mx/lib\libpic32.a(vector0.o)
                              c:/program files (x86)/microchip/xc32/v1.40/bin/bin/../../lib/gcc/pic32mx/4.8.3/../../../../pic32mx/lib/./proc/32MX795F512L\default_isr_vectors.o (__vector_dispatch_0)
c:/program files (x86)/microchip/xc32/v1.40/bin/bin/../../lib/gcc/pic32mx/4.8.3/../../../../pic32mx/lib\libpic32.a(vector2.o)
                              c:/program files (x86)/microchip/xc32/v1.40/bin/bin/../../lib/gcc/pic32mx/4.8.3/../../../../pic32mx/lib/./proc/32MX795F512L\default_isr_vectors.o (__vector_dispatch_2)
c:/program files (x86)/microchip/xc32/v1.40/bin/bin/../../lib/gcc/pic32mx/4.8.3/../../../../pic32mx/lib\libpic32.a(vector3.o)
                              c:/program files (x86)/microchip/xc32/v1.40/bin/bin/../../lib/gcc/pic32mx/4.8.3/../../../../pic32mx/lib/./proc/32MX795F512L\default_isr_vectors.o (__vector_dispatch_3)
c:/program files (x86)/microchip/xc32/v1.40/bin/bin/../../lib/gcc/pic32mx/4.8.3/../../../../pic32mx/lib\libpic32.a(vector5.o)
                              c:/program files (x86)/microchip/xc32/v1.40/bin/bin/../../lib/gcc/pic32mx/4.8.3/../../../../pic32mx/lib/./proc/32MX795F512L\default_isr_vectors.o (__vector_dispatch_5)
c:/program files (x86)/microchip/xc32/v1.40/bin/bin/../../lib/gcc/pic32mx/4.8.3/../../../../pic32mx/lib\libpic32.a(vector6.o)
                              c:/program files (x86)/microchip/xc32/v1.40/bin/bin/../../lib/gcc/pic32mx/4.8.3/../../../../pic32mx/lib/./proc/32MX795F512L\default_isr_vectors.o (__vector_dispatch_6)
c:/program files (x86)/microchip/xc32/v1.40/bin/bin/../../lib/gcc/pic32mx/4.8.3/../../../../pic32mx/lib\libpic32.a(vector9.o)
                              c:/program files (x86)/microchip/xc32/v1.40/bin/bin/../../lib/gcc/pic32mx/4.8.3/../../../../pic32mx/lib/./proc/32MX795F512L\default_isr_vectors.o (__vector_dispatch_9)
c:/program files (x86)/microchip/xc32/v1.40/bin/bin/../../lib/gcc/pic32mx/4.8.3/../../../../pic32mx/lib\libpic32.a(vector10.o)
                              c:/program files (x86)/microchip/xc32/v1.40/bin/bin/../../lib/gcc/pic32mx/4.8.3/../../../../pic32mx/lib/./proc/32MX795F512L\default_isr_vectors.o (__vector_dispatch_10)
c:/program files (x86)/microchip/xc32/v1.40/bin/bin/../../lib/gcc/pic32mx/4.8.3/../../../../pic32mx/lib\libpic32.a(vector13.o)
                              c:/program files (x86)/microchip/xc32/v1.40/bin/bin/../../lib/gcc/pic32mx/4.8.3/../../../../pic32mx/lib/./proc/32MX795F512L\default_isr_vectors.o (__vector_dispatch_13)
c:/program files (x86)/microchip/xc32/v1.40/bin/bin/../../lib/gcc/pic32mx/4.8.3/../../../../pic32mx/lib\libpic32.a(vector14.o)
                              c:/program files (x86)/microchip/xc32/v1.40/bin/bin/../../lib/gcc/pic32mx/4.8.3/../../../../pic32mx/lib/./proc/32MX795F512L\default_isr_vectors.o (__vector_dispatch_14)
c:/program files (x86)/microchip/xc32/v1.40/bin/bin/../../lib/gcc/pic32mx/4.8.3/../../../../pic32mx/lib\libpic32.a(vector15.o)
                              c:/program files (x86)/microchip/xc32/v1.40/bin/bin/../../lib/gcc/pic32mx/4.8.3/../../../../pic32mx/lib/./proc/32MX795F512L\default_isr_vectors.o (__vector_dispatch_15)
c:/program files (x86)/microchip/xc32/v1.40/bin/bin/../../lib/gcc/pic32mx/4.8.3/../../../../pic32mx/lib\libpic32.a(vector17.o)
                              c:/program files (x86)/microchip/xc32/v1.40/bin/bin/../../lib/gcc/pic32mx/4.8.3/../../../../pic32mx/lib/./proc/32MX795F512L\default_isr_vectors.o (__vector_dispatch_17)
c:/program files (x86)/microchip/xc32/v1.40/bin/bin/../../lib/gcc/pic32mx/4.8.3/../../../../pic32mx/lib\libpic32.a(vector18.o)
                              c:/program files (x86)/microchip/xc32/v1.40/bin/bin/../../lib/gcc/pic32mx/4.8.3/../../../../pic32mx/lib/./proc/32MX795F512L\default_isr_vectors.o (__vector_dispatch_18)
c:/program files (x86)/microchip/xc32/v1.40/bin/bin/../../lib/gcc/pic32mx/4.8.3/../../../../pic32mx/lib\libpic32.a(vector19.o)
                              c:/program files (x86)/microchip/xc32/v1.40/bin/bin/../../lib/gcc/pic32mx/4.8.3/../../../../pic32mx/lib/./proc/32MX795F512L\default_isr_vectors.o (__vector_dispatch_19)
c:/program files (x86)/microchip/xc32/v1.40/bin/bin/../../lib/gcc/pic32mx/4.8.3/../../../../pic32mx/lib\libpic32.a(vector21.o)
                              c:/program files (x86)/microchip/xc32/v1.40/bin/bin/../../lib/gcc/pic32mx/4.8.3/../../../../pic32mx/lib/./proc/32MX795F512L\default_isr_vectors.o (__vector_dispatch_21)
c:/program files (x86)/microchip/xc32/v1.40/bin/bin/../../lib/gcc/pic32mx/4.8.3/../../../../pic32mx/lib\libpic32.a(vector22.o)
                              c:/program files (x86)/microchip/xc32/v1.40/bin/bin/../../lib/gcc/pic32mx/4.8.3/../../../../pic32mx/lib/./proc/32MX795F512L\default_isr_vectors.o (__vector_dispatch_22)
c:/program files (x86)/microchip/xc32/v1.40/bin/bin/../../lib/gcc/pic32mx/4.8.3/../../../../pic32mx/lib\libpic32.a(vector23.o)
                              c:/program files (x86)/microchip/xc32/v1.40/bin/bin/../../lib/gcc/pic32mx/4.8.3/../../../../pic32mx/lib/./proc/32MX795F512L\default_isr_vectors.o (__vector_dispatch_23)
c:/program files (x86)/microchip/xc32/v1.40/bin/bin/../../lib/gcc/pic32mx/4.8.3/../../../../pic32mx/lib\libpic32.a(vector25.o)
                              c:/program files (x86)/microchip/xc32/v1.40/bin/bin/../../lib/gcc/pic32mx/4.8.3/../../../../pic32mx/lib/./proc/32MX795F512L\default_isr_vectors.o (__vector_dispatch_25)
c:/program files (x86)/microchip/xc32/v1.40/bin/bin/../../lib/gcc/pic32mx/4.8.3/../../../../pic32mx/lib\libpic32.a(vector26.o)
                              c:/program files (x86)/microchip/xc32/v1.40/bin/bin/../../lib/gcc/pic32mx/4.8.3/../../../../pic32mx/lib/./proc/32MX795F512L\default_isr_vectors.o (__vector_dispatch_26)
c:/program files (x86)/microchip/xc32/v1.40/bin/bin/../../lib/gcc/pic32mx/4.8.3/../../../../pic32mx/lib\libpic32.a(vector27.o)
                              c:/program files (x86)/microchip/xc32/v1.40/bin/bin/../../lib/gcc/pic32mx/4.8.3/../../../../pic32mx/lib/./proc/32MX795F512L\default_isr_vectors.o (__vector_dispatch_27)
c:/program files (x86)/microchip/xc32/v1.40/bin/bin/../../lib/gcc/pic32mx/4.8.3/../../../../pic32mx/lib\libpic32.a(vector28.o)
                              c:/program files (x86)/microchip/xc32/v1.40/bin/bin/../../lib/gcc/pic32mx/4.8.3/../../../../pic32mx/lib/./proc/32MX795F512L\default_isr_vectors.o (__vector_dispatch_28)
c:/program files (x86)/microchip/xc32/v1.40/bin/bin/../../lib/gcc/pic32mx/4.8.3/../../../../pic32mx/lib\libpic32.a(vector29.o)
                              c:/program files (x86)/microchip/xc32/v1.40/bin/bin/../../lib/gcc/pic32mx/4.8.3/../../../../pic32mx/lib/./proc/32MX795F512L\default_isr_vectors.o (__vector_dispatch_29)
c:/program files (x86)/microchip/xc32/v1.40/bin/bin/../../lib/gcc/pic32mx/4.8.3/../../../../pic32mx/lib\libpic32.a(vector30.o)
                              c:/program files (x86)/microchip/xc32/v1.40/bin/bin/../../lib/gcc/pic32mx/4.8.3/../../../../pic32mx/lib/./proc/32MX795F512L\default_isr_vectors.o (__vector_dispatch_30)
c:/program files (x86)/microchip/xc32/v1.40/bin/bin/../../lib/gcc/pic32mx/4.8.3/../../../../pic32mx/lib\libpic32.a(vector31.o)
                              c:/program files (x86)/microchip/xc32/v1.40/bin/bin/../../lib/gcc/pic32mx/4.8.3/../../../../pic32mx/lib/./proc/32MX795F512L\default_isr_vectors.o (__vector_dispatch_31)
c:/program files (x86)/microchip/xc32/v1.40/bin/bin/../../lib/gcc/pic32mx/4.8.3/../../../../pic32mx/lib\libpic32.a(vector33.o)
                              c:/program files (x86)/microchip/xc32/v1.40/bin/bin/../../lib/gcc/pic32mx/4.8.3/../../../../pic32mx/lib/./proc/32MX795F512L\default_isr_vectors.o (__vector_dispatch_33)
c:/program files (x86)/microchip/xc32/v1.40/bin/bin/../../lib/gcc/pic32mx/4.8.3/../../../../pic32mx/lib\libpic32.a(vector34.o)
                              c:/program files (x86)/microchip/xc32/v1.40/bin/bin/../../lib/gcc/pic32mx/4.8.3/../../../../pic32mx/lib/./proc/32MX795F512L\default_isr_vectors.o (__vector_dispatch_34)
c:/program files (x86)/microchip/xc32/v1.40/bin/bin/../../lib/gcc/pic32mx/4.8.3/../../../../pic32mx/lib\libpic32.a(vector35.o)
                              c:/program files (x86)/microchip/xc32/v1.40/bin/bin/../../lib/gcc/pic32mx/4.8.3/../../../../pic32mx/lib/./proc/32MX795F512L\default_isr_vectors.o (__vector_dispatch_35)
c:/program files (x86)/microchip/xc32/v1.40/bin/bin/../../lib/gcc/pic32mx/4.8.3/../../../../pic32mx/lib\libpic32.a(vector36.o)
                              c:/program files (x86)/microchip/xc32/v1.40/bin/bin/../../lib/gcc/pic32mx/4.8.3/../../../../pic32mx/lib/./proc/32MX795F512L\default_isr_vectors.o (__vector_dispatch_36)
c:/program files (x86)/microchip/xc32/v1.40/bin/bin/../../lib/gcc/pic32mx/4.8.3/../../../../pic32mx/lib\libpic32.a(vector37.o)
                              c:/program files (x86)/microchip/xc32/v1.40/bin/bin/../../lib/gcc/pic32mx/4.8.3/../../../../pic32mx/lib/./proc/32MX795F512L\default_isr_vectors.o (__vector_dispatch_37)
c:/program files (x86)/microchip/xc32/v1.40/bin/bin/../../lib/gcc/pic32mx/4.8.3/../../../../pic32mx/lib\libpic32.a(vector38.o)
                              c:/program files (x86)/microchip/xc32/v1.40/bin/bin/../../lib/gcc/pic32mx/4.8.3/../../../../pic32mx/lib/./proc/32MX795F512L\default_isr_vectors.o (__vector_dispatch_38)
c:/program files (x86)/microchip/xc32/v1.40/bin/bin/../../lib/gcc/pic32mx/4.8.3/../../../../pic32mx/lib\libpic32.a(vector39.o)
                              c:/program files (x86)/microchip/xc32/v1.40/bin/bin/../../lib/gcc/pic32mx/4.8.3/../../../../pic32mx/lib/./proc/32MX795F512L\default_isr_vectors.o (__vector_dispatch_39)
c:/program files (x86)/microchip/xc32/v1.40/bin/bin/../../lib/gcc/pic32mx/4.8.3/../../../../pic32mx/lib\libpic32.a(vector40.o)
                              c:/program files (x86)/microchip/xc32/v1.40/bin/bin/../../lib/gcc/pic32mx/4.8.3/../../../../pic32mx/lib/./proc/32MX795F512L\default_isr_vectors.o (__vector_dispatch_40)
c:/program files (x86)/microchip/xc32/v1.40/bin/bin/../../lib/gcc/pic32mx/4.8.3/../../../../pic32mx/lib\libpic32.a(vector41.o)
                              c:/program files (x86)/microchip/xc32/v1.40/bin/bin/../../lib/gcc/pic32mx/4.8.3/../../../../pic32mx/lib/./proc/32MX795F512L\default_isr_vectors.o (__vector_dispatch_41)
c:/program files (x86)/microchip/xc32/v1.40/bin/bin/../../lib/gcc/pic32mx/4.8.3/../../../../pic32mx/lib\libpic32.a(vector42.o)
                              c:/program files (x86)/microchip/xc32/v1.40/bin/bin/../../lib/gcc/pic32mx/4.8.3/../../../../pic32mx/lib/./proc/32MX795F512L\default_isr_vectors.o (__vector_dispatch_42)
c:/program files (x86)/microchip/xc32/v1.40/bin/bin/../../lib/gcc/pic32mx/4.8.3/../../../../pic32mx/lib\libpic32.a(vector43.o)
                              c:/program files (x86)/microchip/xc32/v1.40/bin/bin/../../lib/gcc/pic32mx/4.8.3/../../../../pic32mx/lib/./proc/32MX795F512L\default_isr_vectors.o (__vector_dispatch_43)
c:/program files (x86)/microchip/xc32/v1.40/bin/bin/../../lib/gcc/pic32mx/4.8.3/../../../../pic32mx/lib\libpic32.a(vector44.o)
                              c:/program files (x86)/microchip/xc32/v1.40/bin/bin/../../lib/gcc/pic32mx/4.8.3/../../../../pic32mx/lib/./proc/32MX795F512L\default_isr_vectors.o (__vector_dispatch_44)
c:/program files (x86)/microchip/xc32/v1.40/bin/bin/../../lib/gcc/pic32mx/4.8.3/../../../../pic32mx/lib\libpic32.a(vector45.o)
                              c:/program files (x86)/microchip/xc32/v1.40/bin/bin/../../lib/gcc/pic32mx/4.8.3/../../../../pic32mx/lib/./proc/32MX795F512L\default_isr_vectors.o (__vector_dispatch_45)
c:/program files (x86)/microchip/xc32/v1.40/bin/bin/../../lib/gcc/pic32mx/4.8.3/../../../../pic32mx/lib\libpic32.a(vector46.o)
                              c:/program files (x86)/microchip/xc32/v1.40/bin/bin/../../lib/gcc/pic32mx/4.8.3/../../../../pic32mx/lib/./proc/32MX795F512L\default_isr_vectors.o (__vector_dispatch_46)
c:/program files (x86)/microchip/xc32/v1.40/bin/bin/../../lib/gcc/pic32mx/4.8.3/../../../../pic32mx/lib\libpic32.a(vector47.o)
                              c:/program files (x86)/microchip/xc32/v1.40/bin/bin/../../lib/gcc/pic32mx/4.8.3/../../../../pic32mx/lib/./proc/32MX795F512L\default_isr_vectors.o (__vector_dispatch_47)
c:/program files (x86)/microchip/xc32/v1.40/bin/bin/../../lib/gcc/pic32mx/4.8.3/../../../../pic32mx/lib\libpic32.a(vector48.o)
                              c:/program files (x86)/microchip/xc32/v1.40/bin/bin/../../lib/gcc/pic32mx/4.8.3/../../../../pic32mx/lib/./proc/32MX795F512L\default_isr_vectors.o (__vector_dispatch_48)
c:/program files (x86)/microchip/xc32/v1.40/bin/bin/../../lib/gcc/pic32mx/4.8.3/../../../../pic32mx/lib\libpic32.a(vector49.o)
                              c:/program files (x86)/microchip/xc32/v1.40/bin/bin/../../lib/gcc/pic32mx/4.8.3/../../../../pic32mx/lib/./proc/32MX795F512L\default_isr_vectors.o (__vector_dispatch_49)
c:/program files (x86)/microchip/xc32/v1.40/bin/bin/../../lib/gcc/pic32mx/4.8.3/../../../../pic32mx/lib\libpic32.a(vector50.o)
                              c:/program files (x86)/microchip/xc32/v1.40/bin/bin/../../lib/gcc/pic32mx/4.8.3/../../../../pic32mx/lib/./proc/32MX795F512L\default_isr_vectors.o (__vector_dispatch_50)
c:/program files (x86)/microchip/xc32/v1.40/bin/bin/../../lib/gcc/pic32mx/4.8.3/../../../../pic32mx/lib\libpic32.a(vector51.o)
                              c:/program files (x86)/microchip/xc32/v1.40/bin/bin/../../lib/gcc/pic32mx/4.8.3/../../../../pic32mx/lib/./proc/32MX795F512L\default_isr_vectors.o (__vector_dispatch_51)
c:/program files (x86)/microchip/xc32/v1.40/bin/bin/../../lib/gcc/pic32mx/4.8.3/../../../../pic32mx/lib\libpic32.a(memcmp.o)
                              build/configRover/debug/_ext/184327166/tasks.o (memcmp)
c:/program files (x86)/microchip/xc32/v1.40/bin/bin/../../lib/gcc/pic32mx/4.8.3/../../../../pic32mx/lib\libpic32.a(defaultinterrupt.o)
                              c:/program files (x86)/microchip/xc32/v1.40/bin/bin/../../lib/gcc/pic32mx/4.8.3/../../../../pic32mx/lib\libpic32.a(vector0.o) (_DefaultInterrupt)
c:/program files (x86)/microchip/xc32/v1.40/bin/bin/../../lib/gcc/pic32mx/4.8.3/../../../../pic32mx/lib\libc.a(snprintf_fF.eo)
                              build/configRover/debug/_ext/1536116519/debug.o (_snprintf_fF)
c:/program files (x86)/microchip/xc32/v1.40/bin/bin/../../lib/gcc/pic32mx/4.8.3/../../../../pic32mx/lib\libc.a(sprintf_cdnopuxX.eo)
                              build/configRover/debug/_ext/1536116519/debug.o (_sprintf_cdnopuxX)
c:/program files (x86)/microchip/xc32/v1.40/bin/bin/../../lib/gcc/pic32mx/4.8.3/../../../../pic32mx/lib\libc.a(vsnprintf_fF.eo)
                              c:/program files (x86)/microchip/xc32/v1.40/bin/bin/../../lib/gcc/pic32mx/4.8.3/../../../../pic32mx/lib\libc.a(snprintf_fF.eo) (_vsnprintf_fF)
c:/program files (x86)/microchip/xc32/v1.40/bin/bin/../../lib/gcc/pic32mx/4.8.3/../../../../pic32mx/lib\libc.a(doprnt_cdnopuxX.eo)
                              c:/program files (x86)/microchip/xc32/v1.40/bin/bin/../../lib/gcc/pic32mx/4.8.3/../../../../pic32mx/lib\libc.a(sprintf_cdnopuxX.eo) (_vfprintf_cdnopuxX)
c:/program files (x86)/microchip/xc32/v1.40/bin/bin/../../lib/gcc/pic32mx/4.8.3/../../../../pic32mx/lib\libc.a(doprnt_fF.eo)
                              c:/program files (x86)/microchip/xc32/v1.40/bin/bin/../../lib/gcc/pic32mx/4.8.3/../../../../pic32mx/lib\libc.a(vsnprintf_fF.eo) (_vfprintf_fF)
c:/program files (x86)/microchip/xc32/v1.40/bin/bin/../../lib/gcc/pic32mx/4.8.3/../../../../pic32mx/lib\libc.a(_fputc_simple.o)
                              c:/program files (x86)/microchip/xc32/v1.40/bin/bin/../../lib/gcc/pic32mx/4.8.3/../../../../pic32mx/lib\libc.a(doprnt_cdnopuxX.eo) (fputc)
c:/program files (x86)/microchip/xc32/v1.40/bin/bin/../../lib/gcc/pic32mx/4.8.3/../../../../pic32mx/lib\libc.a(ctype.o)
                              c:/program files (x86)/microchip/xc32/v1.40/bin/bin/../../lib/gcc/pic32mx/4.8.3/../../../../pic32mx/lib\libc.a(doprnt_cdnopuxX.eo) (_ctype)
c:/program files (x86)/microchip/xc32/v1.40/bin/bin/../../lib/gcc/pic32mx/4.8.3/../../../../pic32mx/lib\libc.a(powersf.o)
                              c:/program files (x86)/microchip/xc32/v1.40/bin/bin/../../lib/gcc/pic32mx/4.8.3/../../../../pic32mx/lib\libc.a(doprnt_fF.eo) (_powers_f)
c:/program files (x86)/microchip/xc32/v1.40/bin/bin/../../lib/gcc/pic32mx/4.8.3/../../../../pic32mx/lib\libc.a(_iob.o)
                              c:/program files (x86)/microchip/xc32/v1.40/bin/bin/../../lib/gcc/pic32mx/4.8.3/../../../../pic32mx/lib\libc.a(_fputc_simple.o) (_outdone)
c:/program files (x86)/microchip/xc32/v1.40/bin/bin/../../lib/gcc/pic32mx/4.8.3/../../../../pic32mx/lib\libc.a(_flsbuf_simple.o)
                              c:/program files (x86)/microchip/xc32/v1.40/bin/bin/../../lib/gcc/pic32mx/4.8.3/../../../../pic32mx/lib\libc.a(_fputc_simple.o) (_flsbuf)
c:/program files (x86)/microchip/xc32/v1.40/bin/bin/../../lib/gcc/pic32mx/4.8.3/../../../../pic32mx/lib\libpic32.a(write.o)
                              c:/program files (x86)/microchip/xc32/v1.40/bin/bin/../../lib/gcc/pic32mx/4.8.3/../../../../pic32mx/lib\libc.a(_fputc_simple.o) (write)
c:/program files (x86)/microchip/xc32/v1.40/bin/bin/../../lib/gcc/pic32mx/4.8.3/../../../../pic32mx/lib\libpic32.a(_mon_putc.o)
                              c:/program files (x86)/microchip/xc32/v1.40/bin/bin/../../lib/gcc/pic32mx/4.8.3/../../../../pic32mx/lib\libpic32.a(write.o) (_mon_putc)
c:/program files (x86)/microchip/xc32/v1.40/bin/bin/../../lib/gcc/pic32mx/4.8.3/../../../../pic32mx/lib\libpic32.a(xc32_uart.o)
                              c:/program files (x86)/microchip/xc32/v1.40/bin/bin/../../lib/gcc/pic32mx/4.8.3/../../../../pic32mx/lib\libpic32.a(_mon_putc.o) (__XC_UART)
c:/program files (x86)/microchip/xc32/v1.40/bin/bin/../../lib/gcc/pic32mx/4.8.3/../../../../pic32mx/lib\libm.a(fp32div.o)
                              c:/program files (x86)/microchip/xc32/v1.40/bin/bin/../../lib/gcc/pic32mx/4.8.3/../../../../pic32mx/lib\libc.a(doprnt_fF.eo) (fpdiv)
c:/program files (x86)/microchip/xc32/v1.40/bin/bin/../../lib/gcc/pic32mx/4.8.3/../../../../pic32mx/lib\libm.a(fp32mul.o)
                              c:/program files (x86)/microchip/xc32/v1.40/bin/bin/../../lib/gcc/pic32mx/4.8.3/../../../../pic32mx/lib\libc.a(doprnt_fF.eo) (fpmul)
c:/program files (x86)/microchip/xc32/v1.40/bin/bin/../../lib/gcc/pic32mx/4.8.3/../../../../pic32mx/lib\libm.a(fp32subadd.o)
                              c:/program files (x86)/microchip/xc32/v1.40/bin/bin/../../lib/gcc/pic32mx/4.8.3/../../../../pic32mx/lib\libc.a(doprnt_fF.eo) (fpsub)
c:/program files (x86)/microchip/xc32/v1.40/bin/bin/../../lib/gcc/pic32mx/4.8.3/../../../../pic32mx/lib\libm.a(fpcmp.o)
                              c:/program files (x86)/microchip/xc32/v1.40/bin/bin/../../lib/gcc/pic32mx/4.8.3/../../../../pic32mx/lib\libc.a(doprnt_fF.eo) (fpcmp)
c:/program files (x86)/microchip/xc32/v1.40/bin/bin/../../lib/gcc/pic32mx/4.8.3/../../../../pic32mx/lib\libm.a(fpfrexp.o)
                              c:/program files (x86)/microchip/xc32/v1.40/bin/bin/../../lib/gcc/pic32mx/4.8.3/../../../../pic32mx/lib\libc.a(doprnt_fF.eo) (frexpf)
c:/program files (x86)/microchip/xc32/v1.40/bin/bin/../../lib/gcc/pic32mx/4.8.3/../../../../pic32mx/lib\libm.a(fptoul.o)
                              c:/program files (x86)/microchip/xc32/v1.40/bin/bin/../../lib/gcc/pic32mx/4.8.3/../../../../pic32mx/lib\libc.a(doprnt_fF.eo) (fptoui)
c:/program files (x86)/microchip/xc32/v1.40/bin/bin/../../lib/gcc/pic32mx/4.8.3/../../../../pic32mx/lib\libe.a(_floatdisf.o)
                              c:/program files (x86)/microchip/xc32/v1.40/bin/bin/../../lib/gcc/pic32mx/4.8.3/../../../../pic32mx/lib\libc.a(doprnt_fF.eo) (__floatdisf)
c:/program files (x86)/microchip/xc32/v1.40/bin/bin/../../lib/gcc/pic32mx/4.8.3\libgcc.a(_udivdi3.o)
                              c:/program files (x86)/microchip/xc32/v1.40/bin/bin/../../lib/gcc/pic32mx/4.8.3/../../../../pic32mx/lib\libc.a(doprnt_cdnopuxX.eo) (__udivdi3)
c:/program files (x86)/microchip/xc32/v1.40/bin/bin/../../lib/gcc/pic32mx/4.8.3\libgcc.a(_umoddi3.o)
                              c:/program files (x86)/microchip/xc32/v1.40/bin/bin/../../lib/gcc/pic32mx/4.8.3/../../../../pic32mx/lib\libc.a(doprnt_cdnopuxX.eo) (__umoddi3)
c:/program files (x86)/microchip/xc32/v1.40/bin/bin/../../lib/gcc/pic32mx/4.8.3\libgcc.a(floatunsisf.o)
                              c:/program files (x86)/microchip/xc32/v1.40/bin/bin/../../lib/gcc/pic32mx/4.8.3/../../../../pic32mx/lib\libc.a(doprnt_fF.eo) (__floatunsisf)
c:/program files (x86)/microchip/xc32/v1.40/bin/bin/../../lib/gcc/pic32mx/4.8.3/../../../../pic32mx/lib\libc.a(doprnt_cdfFnopuxX.eo)
                              (_vfprintf_cdfFnopuxX)
c:/program files (x86)/microchip/xc32/v1.40/bin/bin/../../lib/gcc/pic32mx/4.8.3/../../../../pic32mx/lib\libm.a(sitofp.o)
                              c:/program files (x86)/microchip/xc32/v1.40/bin/bin/../../lib/gcc/pic32mx/4.8.3\libgcc.a(floatunsisf.o) (sitofp)

Allocating common symbols
Common symbol       size              file

debugQueue          0x4               build/configRover/debug/_ext/1536116519/debug.o
pxDelayedTaskList   0x4               build/configRover/debug/_ext/184327166/tasks.o
lastTime            0x4               build/configRover/debug/_ext/1536116519/debug.o
xDelayedCoRoutineList2
                    0x14              build/configRover/debug/_ext/184327166/croutine.o
sysObj              0x14              build/configRover/debug/_ext/369138285/system_init.o
xDelayedCoRoutineList1
                    0x14              build/configRover/debug/_ext/184327166/croutine.o
pxReadyTasksLists   0x64              build/configRover/debug/_ext/184327166/tasks.o
pxOverflowDelayedTaskList
                    0x4               build/configRover/debug/_ext/184327166/tasks.o
xPendingReadyList   0x14              build/configRover/debug/_ext/184327166/tasks.o
pxReadyCoRoutineLists
                    0x28              build/configRover/debug/_ext/184327166/croutine.o
xTasksWaitingTermination
                    0x14              build/configRover/debug/_ext/184327166/tasks.o
pxOverflowDelayedCoRoutineList
                    0x4               build/configRover/debug/_ext/184327166/croutine.o
xPendingReadyCoRoutineList
                    0x14              build/configRover/debug/_ext/184327166/croutine.o
msTime              0x4               build/configRover/debug/_ext/1536116519/debug.o
sysDevconObj        0x8               build/configRover/debug/_ext/351848739/sys_devcon.o
pxDelayedCoRoutineList
                    0x4               build/configRover/debug/_ext/184327166/croutine.o
xSuspendedTaskList  0x14              build/configRover/debug/_ext/184327166/tasks.o
motorData           0x38              build/configRover/debug/_ext/1360937237/motor.o
communicationData   0x48              build/configRover/debug/_ext/1360937237/communication.o
xDelayedTaskList2   0x14              build/configRover/debug/_ext/184327166/tasks.o
xDelayedTaskList1   0x14              build/configRover/debug/_ext/184327166/tasks.o

Microchip PIC32 Memory-Usage Report

kseg0 Program-Memory Usage
section                    address  length [bytes]      (dec)  Description
-------                 ----------  -------------------------  -----------
.text._vfprintf_cdfFnop 0x9d000000         0x1420        5152   
.text.communication_sen 0x9d001420          0x4c0        1216   
.text.communication_sen 0x9d0018e0          0x4b8        1208   
.text                   0x9d001d98          0xd10        3344  App's exec code 
.text.COMMUNICATION_Tas 0x9d002aa8          0x348         840   
.text.MOTOR_Tasks       0x9d002df0          0x2d4         724   
.text.fpsubadd          0x9d0030c4          0x278         632   
.text.xQueueGenericRece 0x9d00333c          0x24c         588   
.text.fp32div           0x9d003588          0x230         560   
.text.scale             0x9d0037b8          0x21c         540   
.text.__floatdisf       0x9d0039d4          0x214         532   
.text.xQueueGenericSend 0x9d003be8          0x208         520   
.text.xTaskGenericCreat 0x9d003df0          0x1c0         448   
.text.fp32mul           0x9d003fb0          0x1bc         444   
.ExternalInterruptInsta 0x9d00416c          0x1b4         436   
.ExternalInterruptInsta 0x9d004320          0x1b4         436   
.DrvTmrInstance0_vector 0x9d0044d4          0x1b4         436   
.DrvTmrInstance1_vector 0x9d004688          0x1b4         436   
.DrvTmrInstance2_vector 0x9d00483c          0x1b4         436   
.DrvTmrInstance3_vector 0x9d0049f0          0x1b4         436   
.DrvUsartInstance0_vect 0x9d004ba4          0x1b4         436   
.DrvUsartInstance1_vect 0x9d004d58          0x1b4         436   
.text.xTaskIncrementTic 0x9d004f0c          0x19c         412   
.text                   0x9d0050a8          0x168         360  App's exec code 
.text.SYS_Initialize    0x9d005210          0x154         340   
.text.xTaskResumeAll    0x9d005364          0x154         340   
.text.fputc             0x9d0054b8          0x144         324   
.dinit                  0x9d0055fc          0x130         304   
.text.vTaskPriorityInhe 0x9d00572c          0x12c         300   
.text._flsbuf           0x9d005858          0x12c         300   
.text.MOTOR_Initialize  0x9d005984          0x11c         284   
.text.vTaskSwitchContex 0x9d005aa0          0x11c         284   
.text.DRV_USART1_Initia 0x9d005bbc          0x10c         268   
.text.prvUnlockQueue    0x9d005cc8          0x104         260   
.rodata                 0x9d005dcc          0x104         260  Read-only const 
.text.prvCopyDataToQueu 0x9d005ed0           0xfc         252   
.text.xTaskPriorityDisi 0x9d005fcc           0xf8         248   
.text.DRV_USART0_Initia 0x9d0060c4           0xf0         240   
.text.xQueueGenericSend 0x9d0061b4           0xe8         232   
.text.communication_get 0x9d00629c           0xe0         224   
.rodata                 0x9d00637c            0x4           4  Read-only const 
.rodata                 0x9d006380          0x1bc         444  Read-only const 
.text.SYS_DEVCON_Perfor 0x9d00653c           0xdc         220   
.text.general_exception 0x9d006618           0xdc         220   
.text.IntHandlerDrvUsar 0x9d0066f4           0xd8         216   
.text.xQueueReceiveFrom 0x9d0067cc           0xd4         212   
.text._mon_putc         0x9d0068a0           0xd4         212   
.rodata                 0x9d006974           0xc4         196  Read-only const 
.text.xQueueGenericRese 0x9d006a38           0xc4         196   
.text.IntHandlerDrvUsar 0x9d006afc           0xc0         192   
.text.COMMUNICATION_Ini 0x9d006bbc           0xc0         192   
.text.xTaskRemoveFromEv 0x9d006c7c           0xbc         188   
.text.pvPortMalloc      0x9d006d38           0xb8         184   
.text.prvInitialiseTCBV 0x9d006df0           0xb4         180   
.text.IntToChar         0x9d006ea4           0xb0         176   
.text.SYS_Tasks         0x9d006f54           0xac         172   
.text                   0x9d007000           0xa8         168  App's exec code 
.text.xTaskCheckForTime 0x9d0070a8           0xa0         160   
.text.write             0x9d007148           0x9c         156   
.text.fpcmp             0x9d0071e4           0x9c         156   
.text                   0x9d007280           0x98         152  App's exec code 
.text.xQueueGenericCrea 0x9d007318           0x94         148   
.text.vTaskPlaceOnEvent 0x9d0073ac           0x94         148   
.text.vTaskDelay        0x9d007440           0x90         144   
.text.prvInitialiseTask 0x9d0074d0           0x90         144   
.text.prvCheckTasksWait 0x9d007560           0x90         144   
.text.DRV_TMR0_Initiali 0x9d0075f0           0x88         136   
.text.debugU            0x9d007678           0x88         136   
.text.libm              0x9d007700           0x88         136   
.text.DRV_TMR3_Initiali 0x9d007788           0x84         132   
.text.prvAllocateTCBAnd 0x9d00780c           0x84         132   
.text.DRV_TMR1_Initiali 0x9d007890           0x80         128   
.text.DRV_TMR2_Initiali 0x9d007910           0x80         128   
.text.CharToInt         0x9d007990           0x7c         124   
.text.vTaskStartSchedul 0x9d007a0c           0x7c         124   
.text.fptoul            0x9d007a88           0x7c         124   
.text.prvAddCurrentTask 0x9d007b04           0x70         112   
.text.vApplicationSetup 0x9d007b74           0x6c         108   
.text.vTaskExitCritical 0x9d007be0           0x68         104   
.text._sprintf_cdnopuxX 0x9d007c48           0x68         104   
.rodata                 0x9d007cb0           0x68         104  Read-only const 
.text.DRV_OC0_Initializ 0x9d007d18           0x64         100   
.text.DRV_OC1_Initializ 0x9d007d7c           0x64         100   
.text.motor_sendmsgISR  0x9d007de0           0x64         100   
.text.sitofp            0x9d007e44           0x60          96   
.text.xPortStartSchedul 0x9d007ea4           0x5c          92   
.text.vListInsert       0x9d007f00           0x5c          92   
.text.SYS_CLK_Initializ 0x9d007f5c           0x58          88   
.text.SYS_DEVCON_System 0x9d007fb4           0x58          88   
.text.main_entry        0x9d00800c           0x54          84   
.text.pxPortInitialiseS 0x9d008060           0x54          84   
.text.vPortIncrementTic 0x9d0080b4           0x54          84   
.text.motor_durationTic 0x9d008108           0x50          80   
.text.prvCopyDataFromQu 0x9d008158           0x50          80   
.text.vTaskEnterCritica 0x9d0081a8           0x50          80   
.text.IntHandlerDrvTmrI 0x9d0081f8           0x4c          76   
.text                   0x9d008244           0x4c          76  App's exec code 
.text.SYS_DEVCON_System 0x9d008290           0x48          72   
.text._bootstrap_except 0x9d0082d8           0x48          72   
.vector_default         0x9d008320           0x48          72   
.text._general_exceptio 0x9d008368           0x44          68   
.text.uxListRemove      0x9d0083ac           0x44          68   
.text                   0x9d0083f0           0x44          68  App's exec code 
.text.SYS_PORTS_Initial 0x9d008434           0x40          64   
.text.prvIdleTask       0x9d008474           0x40          64   
.text.initDebugU        0x9d0084b4           0x40          64   
.text.IntHandlerDrvTmrI 0x9d0084f4           0x3c          60   
.text.uxPortSetInterrup 0x9d008530           0x3c          60   
.text.debugUInt         0x9d00856c           0x3c          60   
.text.communication_sen 0x9d0085a8           0x38          56   
.text.prvResetNextTaskU 0x9d0085e0           0x38          56   
.text.SYS_INT_ExternalI 0x9d008618           0x34          52   
.text.crash             0x9d00864c           0x34          52   
.text.DRV_USART1_ReadBy 0x9d008680           0x30          48   
.text.vListInsertEnd    0x9d0086b0           0x30          48   
.text.prvDeleteTCB      0x9d0086e0           0x30          48   
.text.debugUGetByteISR  0x9d008710           0x30          48   
.text.DRV_USART0_WriteB 0x9d008740           0x2c          44   
.text.DRV_USART1_WriteB 0x9d00876c           0x2c          44   
.text.IntHandlerExterna 0x9d008798           0x2c          44   
.text.IntHandlerExterna 0x9d0087c4           0x2c          44   
.rodata                 0x9d0087f0           0x2c          44  Read-only const 
.text.vApplicationStack 0x9d00881c           0x2c          44   
.text.vApplicationMallo 0x9d008848           0x2c          44   
.text.prvTaskExitError  0x9d008874           0x2c          44   
.text.communication_Int 0x9d0088a0           0x28          40   
.text.pvTaskIncrementMu 0x9d0088c8           0x28          40   
.rodata                 0x9d0088f0           0x4c          76  Read-only const 
.text.debugUQueueEmptyI 0x9d00893c           0x24          36   
.text.IntHandlerDrvTmrI 0x9d008960           0x20          32   
.text.IntHandlerDrvTmrI 0x9d008980           0x20          32   
.text._SYS_Tasks        0x9d0089a0           0x20          32   
.text._COMMUNICATION_Ta 0x9d0089c0           0x20          32   
.text._MOTOR_Tasks      0x9d0089e0           0x20          32   
.text.main              0x9d008a00           0x20          32   
.text.vListInitialise   0x9d008a20           0x20          32   
.text.SYS_DEVCON_JTAGDi 0x9d008a40           0x1c          28   
.text.vPortClearInterru 0x9d008a5c           0x1c          28   
.rodata                 0x9d008a78           0x1c          28  Read-only const 
.text.DRV_OC0_Start     0x9d008a94           0x18          24   
.text.DRV_OC0_Stop      0x9d008aac           0x18          24   
.text.DRV_OC1_Start     0x9d008ac4           0x18          24   
.text.DRV_OC1_Stop      0x9d008adc           0x18          24   
.text.DRV_TMR0_Start    0x9d008af4           0x18          24   
.text.DRV_TMR0_Stop     0x9d008b0c           0x18          24   
.text.DRV_TMR1_Start    0x9d008b24           0x18          24   
.text.DRV_TMR2_Start    0x9d008b3c           0x18          24   
.text.DRV_TMR2_Stop     0x9d008b54           0x18          24   
.text.DRV_TMR3_Start    0x9d008b6c           0x18          24   
.text.motor_LEncode     0x9d008b84           0x18          24   
.text.motor_REncode     0x9d008b9c           0x18          24   
.text.SYS_INT_Initializ 0x9d008bb4           0x18          24   
.text.debugCharInit     0x9d008bcc           0x18          24   
.text                   0x9d008be4           0x18          24  App's exec code 
.text.DRV_USART1_Receiv 0x9d008bfc           0x14          20   
.text.motor_ResetLEncod 0x9d008c10           0x14          20   
.text.motor_ResetREncod 0x9d008c24           0x14          20   
.text.SYS_DEVCON_Initia 0x9d008c38           0x14          20   
.text.vTaskSuspendAll   0x9d008c4c           0x14          20   
.text.vTaskSetTimeOutSt 0x9d008c60           0x14          20   
.text.DRV_TMR0_CounterC 0x9d008c74           0x10          16   
.text.DRV_TMR1_CounterC 0x9d008c84           0x10          16   
.text.DRV_TMR2_CounterC 0x9d008c94           0x10          16   
.text.DRV_TMR3_CounterC 0x9d008ca4           0x10          16   
.text.vTaskMissedYield  0x9d008cb4           0x10          16   
.text.debugTimerTick    0x9d008cc4           0x10          16   
.text.debugGetTime      0x9d008cd4           0x10          16   
.text.__exception_handl 0x9d008ce4            0xc          12   
.text.SYS_CLK_SystemFre 0x9d008cf0            0xc          12   
.text.SYS_CLK_Periphera 0x9d008cfc            0xc          12   
.text.xQueueIsQueueEmpt 0x9d008d08            0xc          12   
.text.debugTimerInit    0x9d008d14            0xc          12   
.text.SYS_DEVCON_Tasks  0x9d008d20            0x8           8   
.text.vPortFree         0x9d008d28            0x8           8   
.text.vListInitialiseIt 0x9d008d30            0x8           8   
.text._on_reset         0x9d008d38            0x8           8   
.text._on_bootstrap     0x9d008d40            0x8           8   
.rodata                 0x9d008d48            0x4           4  Read-only const 
      Total kseg0_program_mem used  :      0x8d4c       36172  6.9% of 0x80000

kseg0 Boot-Memory Usage
section                    address  length [bytes]      (dec)  Description
-------                 ----------  -------------------------  -----------
         Total kseg0_boot_mem used  :           0           0  <1% of 0x970

Exception-Memory Usage 
section                    address  length [bytes]      (dec)  Description
-------                 ----------  -------------------------  -----------
.app_excpt              0x9fc01180           0x10          16  General-Exception 
.vector_0               0x9fc01200            0x8           8  Interrupt Vector 0 
.vector_1               0x9fc01220            0x8           8  Interrupt Vector 1 
.vector_2               0x9fc01240            0x8           8  Interrupt Vector 2 
.vector_3               0x9fc01260            0x8           8  Interrupt Vector 3 
.vector_4               0x9fc01280            0x8           8  Interrupt Vector 4 
.vector_5               0x9fc012a0            0x8           8  Interrupt Vector 5 
.vector_6               0x9fc012c0            0x8           8  Interrupt Vector 6 
.vector_7               0x9fc012e0           0x10          16  Interrupt Vector 7 
.vector_8               0x9fc01300           0x10          16  Interrupt Vector 8 
.vector_9               0x9fc01320            0x8           8  Interrupt Vector 9 
.vector_10              0x9fc01340            0x8           8  Interrupt Vector 10 
.vector_11              0x9fc01360           0x10          16  Interrupt Vector 11 
.vector_12              0x9fc01380           0x10          16  Interrupt Vector 12 
.vector_13              0x9fc013a0            0x8           8  Interrupt Vector 13 
.vector_14              0x9fc013c0            0x8           8  Interrupt Vector 14 
.vector_15              0x9fc013e0            0x8           8  Interrupt Vector 15 
.vector_16              0x9fc01400           0x10          16  Interrupt Vector 16 
.vector_17              0x9fc01420            0x8           8  Interrupt Vector 17 
.vector_18              0x9fc01440            0x8           8  Interrupt Vector 18 
.vector_19              0x9fc01460            0x8           8  Interrupt Vector 19 
.vector_20              0x9fc01480           0x10          16  Interrupt Vector 20 
.vector_21              0x9fc014a0            0x8           8  Interrupt Vector 21 
.vector_22              0x9fc014c0            0x8           8  Interrupt Vector 22 
.vector_23              0x9fc014e0            0x8           8  Interrupt Vector 23 
.vector_24              0x9fc01500           0x10          16  Interrupt Vector 24 
.vector_25              0x9fc01520            0x8           8  Interrupt Vector 25 
.vector_26              0x9fc01540            0x8           8  Interrupt Vector 26 
.vector_27              0x9fc01560            0x8           8  Interrupt Vector 27 
.vector_28              0x9fc01580            0x8           8  Interrupt Vector 28 
.vector_29              0x9fc015a0            0x8           8  Interrupt Vector 29 
.vector_30              0x9fc015c0            0x8           8  Interrupt Vector 30 
.vector_31              0x9fc015e0            0x8           8  Interrupt Vector 31 
.vector_32              0x9fc01600           0x10          16  Interrupt Vector 32 
.vector_33              0x9fc01620            0x8           8  Interrupt Vector 33 
.vector_34              0x9fc01640            0x8           8  Interrupt Vector 34 
.vector_35              0x9fc01660            0x8           8  Interrupt Vector 35 
.vector_36              0x9fc01680            0x8           8  Interrupt Vector 36 
.vector_37              0x9fc016a0            0x8           8  Interrupt Vector 37 
.vector_38              0x9fc016c0            0x8           8  Interrupt Vector 38 
.vector_39              0x9fc016e0            0x8           8  Interrupt Vector 39 
.vector_40              0x9fc01700            0x8           8  Interrupt Vector 40 
.vector_41              0x9fc01720            0x8           8  Interrupt Vector 41 
.vector_42              0x9fc01740            0x8           8  Interrupt Vector 42 
.vector_43              0x9fc01760            0x8           8  Interrupt Vector 43 
.vector_44              0x9fc01780            0x8           8  Interrupt Vector 44 
.vector_45              0x9fc017a0            0x8           8  Interrupt Vector 45 
.vector_46              0x9fc017c0            0x8           8  Interrupt Vector 46 
.vector_47              0x9fc017e0            0x8           8  Interrupt Vector 47 
.vector_48              0x9fc01800            0x8           8  Interrupt Vector 48 
.vector_49              0x9fc01820            0x8           8  Interrupt Vector 49 
.vector_50              0x9fc01840            0x8           8  Interrupt Vector 50 
.vector_51              0x9fc01860            0x8           8  Interrupt Vector 51 
          Total exception_mem used  :       0x1f0         496  12.1% of 0x1000

kseg1 Boot-Memory Usage
section                    address  length [bytes]      (dec)  Description
-------                 ----------  -------------------------  -----------
.reset                  0xbfc00000          0x1f4         500  Reset handler 
.bev_excpt              0xbfc00380           0x10          16  BEV-Exception 
         Total kseg1_boot_mem used  :       0x204         516  44.2% of 0x490
        --------------------------------------------------------------------------
         Total Program Memory used  :      0x9140       37184  7.0% of 0x81e00
        --------------------------------------------------------------------------


kseg0 Data-Memory Usage
section                    address  length [bytes]      (dec)  Description
-------                 ----------  -------------------------  -----------
reserve_data_0_kseg0    0x80000000          0x200         512   
         Total kseg0_data_mem used  :       0x200         512  100.0% of 0x200

kseg1 Data-Memory Usage
section                    address  length [bytes]      (dec)  Description
-------                 ----------  -------------------------  -----------
reserve_data_0_kseg1    0xa0000000          0x200         512   
.sdata                  0xa0000200            0xc          12  Small init data 
.sbss                   0xa000020c           0xa0         160  Small uninit data 
.bss                    0xa00002ac          0x15c         348  Uninitialized data 
.bss                    0xa0000408         0x5640       22080  Uninitialized data 
.data                   0xa0005a48           0x4c          76  Initialized data 
.bss                    0xa0005a94           0x44          68  Uninitialized data 
         Total kseg1_data_mem used  :      0x5ad8       23256  17.7% of 0x20000
        --------------------------------------------------------------------------
            Total Data Memory used  :      0x5cd8       23768  18.1% of 0x20200
        --------------------------------------------------------------------------


Dynamic Data-Memory Reservation
section                    address  length [bytes]      (dec)  Description
-------                 ----------  -------------------------  -----------
heap                    0xa0005ae0              0           0  Reserved for heap 
stack                   0xa0005af8        0x1a500      107776  Reserved for stack 

        --------------------------------------------------------------------------

Discarded input sections

 .text          0x00000000        0x0 c:/program files (x86)/microchip/xc32/v1.40/bin/bin/../../lib/gcc/pic32mx/4.8.3/../../../../pic32mx/lib/./proc/32MX795F512L/crt0_mips32r2.o
 .data          0x00000000        0x0 c:/program files (x86)/microchip/xc32/v1.40/bin/bin/../../lib/gcc/pic32mx/4.8.3/../../../../pic32mx/lib/./proc/32MX795F512L/crt0_mips32r2.o
 .bss           0x00000000        0x0 c:/program files (x86)/microchip/xc32/v1.40/bin/bin/../../lib/gcc/pic32mx/4.8.3/../../../../pic32mx/lib/./proc/32MX795F512L/crt0_mips32r2.o
 .text          0x00000000        0x0 c:/program files (x86)/microchip/xc32/v1.40/bin/bin/../../lib/gcc/pic32mx/4.8.3/../../../../pic32mx/lib\software-debug-break.o
 .data          0x00000000        0x0 c:/program files (x86)/microchip/xc32/v1.40/bin/bin/../../lib/gcc/pic32mx/4.8.3/../../../../pic32mx/lib\software-debug-break.o
 .bss           0x00000000        0x0 c:/program files (x86)/microchip/xc32/v1.40/bin/bin/../../lib/gcc/pic32mx/4.8.3/../../../../pic32mx/lib\software-debug-break.o
 .reginfo       0x00000000       0x18 c:/program files (x86)/microchip/xc32/v1.40/bin/bin/../../lib/gcc/pic32mx/4.8.3/../../../../pic32mx/lib\software-debug-break.o
 .text          0x00000000        0x0 build/configRover/debug/_ext/64793341/drv_oc_static.o
 .data          0x00000000        0x0 build/configRover/debug/_ext/64793341/drv_oc_static.o
 .bss           0x00000000        0x0 build/configRover/debug/_ext/64793341/drv_oc_static.o
 .reginfo       0x00000000       0x18 build/configRover/debug/_ext/64793341/drv_oc_static.o
 .text.DRV_OC0_Enable
                0x00000000       0x18 build/configRover/debug/_ext/64793341/drv_oc_static.o
 .text.DRV_OC0_Disable
                0x00000000       0x18 build/configRover/debug/_ext/64793341/drv_oc_static.o
 .text.DRV_OC0_FaultHasOccurred
                0x00000000       0x10 build/configRover/debug/_ext/64793341/drv_oc_static.o
 .text.DRV_OC1_Enable
                0x00000000       0x18 build/configRover/debug/_ext/64793341/drv_oc_static.o
 .text.DRV_OC1_Disable
                0x00000000       0x18 build/configRover/debug/_ext/64793341/drv_oc_static.o
 .text.DRV_OC1_FaultHasOccurred
                0x00000000       0x10 build/configRover/debug/_ext/64793341/drv_oc_static.o
 .text          0x00000000        0x0 build/configRover/debug/_ext/1797679462/drv_tmr_static.o
 .data          0x00000000        0x0 build/configRover/debug/_ext/1797679462/drv_tmr_static.o
 .bss           0x00000000        0x0 build/configRover/debug/_ext/1797679462/drv_tmr_static.o
 .reginfo       0x00000000       0x18 build/configRover/debug/_ext/1797679462/drv_tmr_static.o
 .text.DRV_TMR0_CounterValueSet
                0x00000000       0x14 build/configRover/debug/_ext/1797679462/drv_tmr_static.o
 .text.DRV_TMR0_CounterValueGet
                0x00000000       0x10 build/configRover/debug/_ext/1797679462/drv_tmr_static.o
 .text.DRV_TMR1_Stop
                0x00000000       0x18 build/configRover/debug/_ext/1797679462/drv_tmr_static.o
 .text.DRV_TMR1_CounterValueSet
                0x00000000       0x14 build/configRover/debug/_ext/1797679462/drv_tmr_static.o
 .text.DRV_TMR1_CounterValueGet
                0x00000000       0x10 build/configRover/debug/_ext/1797679462/drv_tmr_static.o
 .text.DRV_TMR2_CounterValueSet
                0x00000000       0x14 build/configRover/debug/_ext/1797679462/drv_tmr_static.o
 .text.DRV_TMR2_CounterValueGet
                0x00000000       0x10 build/configRover/debug/_ext/1797679462/drv_tmr_static.o
 .text.DRV_TMR3_Stop
                0x00000000       0x18 build/configRover/debug/_ext/1797679462/drv_tmr_static.o
 .text.DRV_TMR3_CounterValueSet
                0x00000000       0x14 build/configRover/debug/_ext/1797679462/drv_tmr_static.o
 .text.DRV_TMR3_CounterValueGet
                0x00000000       0x10 build/configRover/debug/_ext/1797679462/drv_tmr_static.o
 .text          0x00000000        0x0 build/configRover/debug/_ext/1532176561/drv_usart_static.o
 .data          0x00000000        0x0 build/configRover/debug/_ext/1532176561/drv_usart_static.o
 .bss           0x00000000        0x0 build/configRover/debug/_ext/1532176561/drv_usart_static.o
 .reginfo       0x00000000       0x18 build/configRover/debug/_ext/1532176561/drv_usart_static.o
 .text          0x00000000        0x0 build/configRover/debug/_ext/249367850/sys_clk_static.o
 .data          0x00000000        0x0 build/configRover/debug/_ext/249367850/sys_clk_static.o
 .bss           0x00000000        0x0 build/configRover/debug/_ext/249367850/sys_clk_static.o
 .reginfo       0x00000000       0x18 build/configRover/debug/_ext/249367850/sys_clk_static.o
 .text.SYS_CLK_ReferenceClockFrequencyGet
                0x00000000        0x8 build/configRover/debug/_ext/249367850/sys_clk_static.o
 .text          0x00000000        0x0 build/configRover/debug/_ext/1926720346/sys_ports_static.o
 .data          0x00000000        0x0 build/configRover/debug/_ext/1926720346/sys_ports_static.o
 .bss           0x00000000        0x0 build/configRover/debug/_ext/1926720346/sys_ports_static.o
 .reginfo       0x00000000       0x18 build/configRover/debug/_ext/1926720346/sys_ports_static.o
 .text          0x00000000        0x0 build/configRover/debug/_ext/369138285/system_init.o
 .data          0x00000000        0x0 build/configRover/debug/_ext/369138285/system_init.o
 .bss           0x00000000        0x0 build/configRover/debug/_ext/369138285/system_init.o
 .reginfo       0x00000000       0x18 build/configRover/debug/_ext/369138285/system_init.o
 .text          0x00000000        0x0 build/configRover/debug/_ext/369138285/system_interrupt.o
 .data          0x00000000        0x0 build/configRover/debug/_ext/369138285/system_interrupt.o
 .bss           0x00000000        0x0 build/configRover/debug/_ext/369138285/system_interrupt.o
 .reginfo       0x00000000       0x18 build/configRover/debug/_ext/369138285/system_interrupt.o
 .text          0x00000000        0x0 build/configRover/debug/_ext/369138285/system_exceptions.o
 .bss           0x00000000        0x0 build/configRover/debug/_ext/369138285/system_exceptions.o
 .reginfo       0x00000000       0x18 build/configRover/debug/_ext/369138285/system_exceptions.o
 .text          0x00000000        0x0 build/configRover/debug/_ext/369138285/system_tasks.o
 .data          0x00000000        0x0 build/configRover/debug/_ext/369138285/system_tasks.o
 .bss           0x00000000        0x0 build/configRover/debug/_ext/369138285/system_tasks.o
 .reginfo       0x00000000       0x18 build/configRover/debug/_ext/369138285/system_tasks.o
 .text          0x00000000        0x0 build/configRover/debug/_ext/369138285/system_interrupt_a.o
 .data          0x00000000        0x0 build/configRover/debug/_ext/369138285/system_interrupt_a.o
 .bss           0x00000000        0x0 build/configRover/debug/_ext/369138285/system_interrupt_a.o
 .reginfo       0x00000000       0x18 build/configRover/debug/_ext/369138285/system_interrupt_a.o
 .text          0x00000000        0x0 build/configRover/debug/_ext/369138285/rtos_hooks.o
 .data          0x00000000        0x0 build/configRover/debug/_ext/369138285/rtos_hooks.o
 .bss           0x00000000        0x0 build/configRover/debug/_ext/369138285/rtos_hooks.o
 .reginfo       0x00000000       0x18 build/configRover/debug/_ext/369138285/rtos_hooks.o
 .text          0x00000000        0x0 build/configRover/debug/_ext/1360937237/communication.o
 .data          0x00000000        0x0 build/configRover/debug/_ext/1360937237/communication.o
 .bss           0x00000000        0x0 build/configRover/debug/_ext/1360937237/communication.o
 .reginfo       0x00000000       0x18 build/configRover/debug/_ext/1360937237/communication.o
 .text.communication_sendmsg
                0x00000000       0x38 build/configRover/debug/_ext/1360937237/communication.o
 .text.communication_send
                0x00000000       0x14 build/configRover/debug/_ext/1360937237/communication.o
 .text.communication_UartTx
                0x00000000       0x54 build/configRover/debug/_ext/1360937237/communication.o
 .text.communication_UartTxChar
                0x00000000       0x1c build/configRover/debug/_ext/1360937237/communication.o
 .text          0x00000000        0x0 build/configRover/debug/_ext/1360937237/motor.o
 .data          0x00000000        0x0 build/configRover/debug/_ext/1360937237/motor.o
 .bss           0x00000000        0x0 build/configRover/debug/_ext/1360937237/motor.o
 .reginfo       0x00000000       0x18 build/configRover/debug/_ext/1360937237/motor.o
 .text.motor_sendmsg
                0x00000000       0x54 build/configRover/debug/_ext/1360937237/motor.o
 .text.motor_ResetLEncode
                0x00000000       0x20 build/configRover/debug/_ext/1360937237/motor.o
 .text.motor_ResetREncode
                0x00000000       0x20 build/configRover/debug/_ext/1360937237/motor.o
 .text          0x00000000        0x0 build/configRover/debug/_ext/1360937237/main.o
 .data          0x00000000        0x0 build/configRover/debug/_ext/1360937237/main.o
 .bss           0x00000000        0x0 build/configRover/debug/_ext/1360937237/main.o
 .reginfo       0x00000000       0x18 build/configRover/debug/_ext/1360937237/main.o
 .text          0x00000000        0x0 build/configRover/debug/_ext/1879384925/osal_freertos.o
 .data          0x00000000        0x0 build/configRover/debug/_ext/1879384925/osal_freertos.o
 .bss           0x00000000        0x0 build/configRover/debug/_ext/1879384925/osal_freertos.o
 .reginfo       0x00000000       0x18 build/configRover/debug/_ext/1879384925/osal_freertos.o
 .text.OSAL_CRIT_Enter
                0x00000000       0x48 build/configRover/debug/_ext/1879384925/osal_freertos.o
 .text.OSAL_CRIT_Leave
                0x00000000       0x44 build/configRover/debug/_ext/1879384925/osal_freertos.o
 .text.OSAL_SEM_Create
                0x00000000       0x94 build/configRover/debug/_ext/1879384925/osal_freertos.o
 .text.OSAL_SEM_Delete
                0x00000000       0x30 build/configRover/debug/_ext/1879384925/osal_freertos.o
 .text.OSAL_SEM_Pend
                0x00000000       0x54 build/configRover/debug/_ext/1879384925/osal_freertos.o
 .text.OSAL_SEM_Post
                0x00000000       0x30 build/configRover/debug/_ext/1879384925/osal_freertos.o
 .text.OSAL_SEM_PostISR
                0x00000000       0x4c build/configRover/debug/_ext/1879384925/osal_freertos.o
 .text.OSAL_SEM_GetCount
                0x00000000       0x2c build/configRover/debug/_ext/1879384925/osal_freertos.o
 .text.OSAL_MUTEX_Create
                0x00000000       0x3c build/configRover/debug/_ext/1879384925/osal_freertos.o
 .text.OSAL_MUTEX_Delete
                0x00000000       0x3c build/configRover/debug/_ext/1879384925/osal_freertos.o
 .text.OSAL_MUTEX_Lock
                0x00000000       0x54 build/configRover/debug/_ext/1879384925/osal_freertos.o
 .text.OSAL_MUTEX_Unlock
                0x00000000       0x30 build/configRover/debug/_ext/1879384925/osal_freertos.o
 .rodata        0x00000000        0xc build/configRover/debug/_ext/1879384925/osal_freertos.o
 .text.OSAL_Name
                0x00000000        0xc build/configRover/debug/_ext/1879384925/osal_freertos.o
 .text.OSAL_Initialize
                0x00000000        0x8 build/configRover/debug/_ext/1879384925/osal_freertos.o
 .text          0x00000000        0x0 build/configRover/debug/_ext/351848739/sys_devcon.o
 .data          0x00000000        0x0 build/configRover/debug/_ext/351848739/sys_devcon.o
 .bss           0x00000000        0x0 build/configRover/debug/_ext/351848739/sys_devcon.o
 .reginfo       0x00000000       0x18 build/configRover/debug/_ext/351848739/sys_devcon.o
 .text.SYS_DEVCON_Reinitialize
                0x00000000       0x10 build/configRover/debug/_ext/351848739/sys_devcon.o
 .text.SYS_DEVCON_Deinitialize
                0x00000000        0x8 build/configRover/debug/_ext/351848739/sys_devcon.o
 .text.SYS_DEVCON_Status
                0x00000000        0x8 build/configRover/debug/_ext/351848739/sys_devcon.o
 .text.SYS_DEVCON_JTAGEnable
                0x00000000       0x18 build/configRover/debug/_ext/351848739/sys_devcon.o
 .text.SYS_DEVCON_TraceEnable
                0x00000000       0x18 build/configRover/debug/_ext/351848739/sys_devcon.o
 .text.SYS_DEVCON_TraceDisable
                0x00000000       0x18 build/configRover/debug/_ext/351848739/sys_devcon.o
 .text.SYS_DEVCON_PowerModeEnter
                0x00000000       0x54 build/configRover/debug/_ext/351848739/sys_devcon.o
 .text          0x00000000        0x0 build/configRover/debug/_ext/351848739/sys_devcon_pic32mx.o
 .data          0x00000000        0x0 build/configRover/debug/_ext/351848739/sys_devcon_pic32mx.o
 .bss           0x00000000        0x0 build/configRover/debug/_ext/351848739/sys_devcon_pic32mx.o
 .reginfo       0x00000000       0x18 build/configRover/debug/_ext/351848739/sys_devcon_pic32mx.o
 .text          0x00000000        0x0 build/configRover/debug/_ext/474818461/sys_int_pic32.o
 .data          0x00000000        0x0 build/configRover/debug/_ext/474818461/sys_int_pic32.o
 .bss           0x00000000        0x0 build/configRover/debug/_ext/474818461/sys_int_pic32.o
 .reginfo       0x00000000       0x18 build/configRover/debug/_ext/474818461/sys_int_pic32.o
 .text.SYS_INT_StatusGetAndDisable
                0x00000000       0x1c build/configRover/debug/_ext/474818461/sys_int_pic32.o
 .text.SYS_INT_StatusRestore
                0x00000000       0x1c build/configRover/debug/_ext/474818461/sys_int_pic32.o
 .text.SYS_INT_Disable
                0x00000000       0x20 build/configRover/debug/_ext/474818461/sys_int_pic32.o
 .text.SYS_INT_SourceDisable
                0x00000000       0x58 build/configRover/debug/_ext/474818461/sys_int_pic32.o
 .text          0x00000000        0x0 build/configRover/debug/_ext/1139950406/sys_ports.o
 .data          0x00000000        0x0 build/configRover/debug/_ext/1139950406/sys_ports.o
 .bss           0x00000000        0x0 build/configRover/debug/_ext/1139950406/sys_ports.o
 .reginfo       0x00000000       0x18 build/configRover/debug/_ext/1139950406/sys_ports.o
 .text.SYS_PORTS_Read
                0x00000000       0x38 build/configRover/debug/_ext/1139950406/sys_ports.o
 .text.SYS_PORTS_Write
                0x00000000       0x2c build/configRover/debug/_ext/1139950406/sys_ports.o
 .text.SYS_PORTS_Set
                0x00000000       0x38 build/configRover/debug/_ext/1139950406/sys_ports.o
 .text.SYS_PORTS_Clear
                0x00000000       0x34 build/configRover/debug/_ext/1139950406/sys_ports.o
 .text.SYS_PORTS_DirectionSelect
                0x00000000       0x6c build/configRover/debug/_ext/1139950406/sys_ports.o
 .text.SYS_PORTS_DirectionGet
                0x00000000       0x38 build/configRover/debug/_ext/1139950406/sys_ports.o
 .text.SYS_PORTS_Toggle
                0x00000000       0x34 build/configRover/debug/_ext/1139950406/sys_ports.o
 .text.SYS_PORTS_OpenDrainEnable
                0x00000000       0x34 build/configRover/debug/_ext/1139950406/sys_ports.o
 .text.SYS_PORTS_OpenDrainDisable
                0x00000000       0x34 build/configRover/debug/_ext/1139950406/sys_ports.o
 .text.SYS_PORTS_ChangeNotificationGlobalEnable
                0x00000000       0x1c build/configRover/debug/_ext/1139950406/sys_ports.o
 .text.SYS_PORTS_GlobalChangeNotificationDisable
                0x00000000       0x1c build/configRover/debug/_ext/1139950406/sys_ports.o
 .text.SYS_PORTS_ChangeNotificationEnable
                0x00000000       0x78 build/configRover/debug/_ext/1139950406/sys_ports.o
 .text.SYS_PORTS_ChangeNotificationDisable
                0x00000000       0x20 build/configRover/debug/_ext/1139950406/sys_ports.o
 .text.SYS_PORTS_ChangeNotificationInIdleModeEnable
                0x00000000       0x1c build/configRover/debug/_ext/1139950406/sys_ports.o
 .text.SYS_PORTS_ChangeNotificationInIdleModeDisable
                0x00000000       0x1c build/configRover/debug/_ext/1139950406/sys_ports.o
 .text.SYS_PORTS_ChangeNotificationPullUpEnable
                0x00000000       0x20 build/configRover/debug/_ext/1139950406/sys_ports.o
 .text.SYS_PORTS_ChangeNotificationPullUpDisable
                0x00000000       0x20 build/configRover/debug/_ext/1139950406/sys_ports.o
 .text.SYS_PORTS_PinModeSelect
                0x00000000       0x38 build/configRover/debug/_ext/1139950406/sys_ports.o
 .text.SYS_PORTS_PinWrite
                0x00000000       0x4c build/configRover/debug/_ext/1139950406/sys_ports.o
 .text.SYS_PORTS_PinRead
                0x00000000       0x44 build/configRover/debug/_ext/1139950406/sys_ports.o
 .text.SYS_PORTS_PinToggle
                0x00000000       0x38 build/configRover/debug/_ext/1139950406/sys_ports.o
 .text.SYS_PORTS_PinSet
                0x00000000       0x38 build/configRover/debug/_ext/1139950406/sys_ports.o
 .text.SYS_PORTS_PinClear
                0x00000000       0x38 build/configRover/debug/_ext/1139950406/sys_ports.o
 .text.SYS_PORTS_PinDirectionSelect
                0x00000000       0x78 build/configRover/debug/_ext/1139950406/sys_ports.o
 .text.SYS_PORTS_PinOpenDrainEnable
                0x00000000       0x38 build/configRover/debug/_ext/1139950406/sys_ports.o
 .text.SYS_PORTS_PinOpenDrainDisable
                0x00000000       0x38 build/configRover/debug/_ext/1139950406/sys_ports.o
 .text.SYS_PORTS_RemapInput
                0x00000000       0x28 build/configRover/debug/_ext/1139950406/sys_ports.o
 .text.SYS_PORTS_RemapOutput
                0x00000000       0x28 build/configRover/debug/_ext/1139950406/sys_ports.o
 .text          0x00000000        0x0 build/configRover/debug/_ext/1818123999/heap_1.o
 .data          0x00000000        0x0 build/configRover/debug/_ext/1818123999/heap_1.o
 .reginfo       0x00000000       0x18 build/configRover/debug/_ext/1818123999/heap_1.o
 .text.vPortInitialiseBlocks
                0x00000000        0x8 build/configRover/debug/_ext/1818123999/heap_1.o
 .text.xPortGetFreeHeapSize
                0x00000000       0x10 build/configRover/debug/_ext/1818123999/heap_1.o
 .text          0x00000000        0x0 build/configRover/debug/_ext/1062886388/port.o
 .data          0x00000000        0x0 build/configRover/debug/_ext/1062886388/port.o
 .reginfo       0x00000000       0x18 build/configRover/debug/_ext/1062886388/port.o
 .text.vPortEndScheduler
                0x00000000        0x8 build/configRover/debug/_ext/1062886388/port.o
 .data          0x00000000        0x0 build/configRover/debug/_ext/1062886388/port_asm.o
 .bss           0x00000000        0x0 build/configRover/debug/_ext/1062886388/port_asm.o
 .reginfo       0x00000000       0x18 build/configRover/debug/_ext/1062886388/port_asm.o
 .text          0x00000000        0x0 build/configRover/debug/_ext/184327166/croutine.o
 .data          0x00000000        0x0 build/configRover/debug/_ext/184327166/croutine.o
 .bss           0x00000000        0x0 build/configRover/debug/_ext/184327166/croutine.o
 .reginfo       0x00000000       0x18 build/configRover/debug/_ext/184327166/croutine.o
 .text.xCoRoutineCreate
                0x00000000       0xe4 build/configRover/debug/_ext/184327166/croutine.o
 .text.vCoRoutineAddToDelayedList
                0x00000000       0x84 build/configRover/debug/_ext/184327166/croutine.o
 .text.prvCheckPendingReadyList
                0x00000000       0xdc build/configRover/debug/_ext/184327166/croutine.o
 .text.prvCheckDelayedList
                0x00000000      0x15c build/configRover/debug/_ext/184327166/croutine.o
 .text.vCoRoutineSchedule
                0x00000000      0x108 build/configRover/debug/_ext/184327166/croutine.o
 .text.prvInitialiseCoRoutineLists
                0x00000000       0x70 build/configRover/debug/_ext/184327166/croutine.o
 .text.xCoRoutineRemoveFromEventList
                0x00000000       0x5c build/configRover/debug/_ext/184327166/croutine.o
 COMMON         0x00000000       0x64 build/configRover/debug/_ext/184327166/croutine.o
 .text          0x00000000        0x0 build/configRover/debug/_ext/184327166/list.o
 .data          0x00000000        0x0 build/configRover/debug/_ext/184327166/list.o
 .bss           0x00000000        0x0 build/configRover/debug/_ext/184327166/list.o
 .reginfo       0x00000000       0x18 build/configRover/debug/_ext/184327166/list.o
 .text          0x00000000        0x0 build/configRover/debug/_ext/184327166/queue.o
 .data          0x00000000        0x0 build/configRover/debug/_ext/184327166/queue.o
 .bss           0x00000000        0x0 build/configRover/debug/_ext/184327166/queue.o
 .reginfo       0x00000000       0x18 build/configRover/debug/_ext/184327166/queue.o
 .text.xQueueCreateMutex
                0x00000000       0x80 build/configRover/debug/_ext/184327166/queue.o
 .text.xQueueCreateCountingSemaphore
                0x00000000       0x34 build/configRover/debug/_ext/184327166/queue.o
 .text.xQueueGiveFromISR
                0x00000000       0xc4 build/configRover/debug/_ext/184327166/queue.o
 .text.xQueuePeekFromISR
                0x00000000       0x74 build/configRover/debug/_ext/184327166/queue.o
 .text.uxQueueMessagesWaiting
                0x00000000       0x34 build/configRover/debug/_ext/184327166/queue.o
 .text.uxQueueSpacesAvailable
                0x00000000       0x38 build/configRover/debug/_ext/184327166/queue.o
 .text.uxQueueMessagesWaitingFromISR
                0x00000000        0xc build/configRover/debug/_ext/184327166/queue.o
 .text.vQueueDelete
                0x00000000       0x1c build/configRover/debug/_ext/184327166/queue.o
 .text.xQueueIsQueueFullFromISR
                0x00000000       0x14 build/configRover/debug/_ext/184327166/queue.o
 .text          0x00000000        0x0 build/configRover/debug/_ext/184327166/tasks.o
 .data          0x00000000        0x0 build/configRover/debug/_ext/184327166/tasks.o
 .bss           0x00000000        0x0 build/configRover/debug/_ext/184327166/tasks.o
 .reginfo       0x00000000       0x18 build/configRover/debug/_ext/184327166/tasks.o
 .text.vTaskDelete
                0x00000000      0x110 build/configRover/debug/_ext/184327166/tasks.o
 .text.vTaskDelayUntil
                0x00000000       0xd8 build/configRover/debug/_ext/184327166/tasks.o
 .text.uxTaskPriorityGet
                0x00000000       0x38 build/configRover/debug/_ext/184327166/tasks.o
 .text.uxTaskPriorityGetFromISR
                0x00000000       0x3c build/configRover/debug/_ext/184327166/tasks.o
 .text.vTaskPrioritySet
                0x00000000      0x15c build/configRover/debug/_ext/184327166/tasks.o
 .text.vTaskSuspend
                0x00000000      0x138 build/configRover/debug/_ext/184327166/tasks.o
 .text.prvTaskIsTaskSuspended
                0x00000000       0x38 build/configRover/debug/_ext/184327166/tasks.o
 .text.vTaskResume
                0x00000000       0xc4 build/configRover/debug/_ext/184327166/tasks.o
 .text.xTaskResumeFromISR
                0x00000000       0xdc build/configRover/debug/_ext/184327166/tasks.o
 .text.vTaskEndScheduler
                0x00000000       0x3c build/configRover/debug/_ext/184327166/tasks.o
 .text.xTaskGetTickCount
                0x00000000        0xc build/configRover/debug/_ext/184327166/tasks.o
 .text.xTaskGetTickCountFromISR
                0x00000000        0xc build/configRover/debug/_ext/184327166/tasks.o
 .text.uxTaskGetNumberOfTasks
                0x00000000        0xc build/configRover/debug/_ext/184327166/tasks.o
 .text.vTaskPlaceOnUnorderedEventList
                0x00000000       0xa4 build/configRover/debug/_ext/184327166/tasks.o
 .text.xTaskRemoveFromUnorderedEventList
                0x00000000       0x9c build/configRover/debug/_ext/184327166/tasks.o
 .text.xTaskGetCurrentTaskHandle
                0x00000000        0xc build/configRover/debug/_ext/184327166/tasks.o
 .text.uxTaskResetEventItemValue
                0x00000000       0x24 build/configRover/debug/_ext/184327166/tasks.o
 .text.ulTaskNotifyTake
                0x00000000      0x128 build/configRover/debug/_ext/184327166/tasks.o
 .text.xTaskNotifyWait
                0x00000000      0x160 build/configRover/debug/_ext/184327166/tasks.o
 .text.xTaskNotify
                0x00000000      0x14c build/configRover/debug/_ext/184327166/tasks.o
 .text.xTaskNotifyFromISR
                0x00000000      0x184 build/configRover/debug/_ext/184327166/tasks.o
 .text.vTaskNotifyGiveFromISR
                0x00000000       0xf8 build/configRover/debug/_ext/184327166/tasks.o
 .text          0x00000000        0x0 build/configRover/debug/_ext/184327166/timers.o
 .data          0x00000000        0x0 build/configRover/debug/_ext/184327166/timers.o
 .bss           0x00000000        0x0 build/configRover/debug/_ext/184327166/timers.o
 .reginfo       0x00000000       0x18 build/configRover/debug/_ext/184327166/timers.o
 .text          0x00000000        0x0 build/configRover/debug/_ext/184327166/event_groups.o
 .data          0x00000000        0x0 build/configRover/debug/_ext/184327166/event_groups.o
 .bss           0x00000000        0x0 build/configRover/debug/_ext/184327166/event_groups.o
 .reginfo       0x00000000       0x18 build/configRover/debug/_ext/184327166/event_groups.o
 .text.xEventGroupCreate
                0x00000000       0x3c build/configRover/debug/_ext/184327166/event_groups.o
 .text.xEventGroupSync
                0x00000000      0x110 build/configRover/debug/_ext/184327166/event_groups.o
 .text.xEventGroupWaitBits
                0x00000000      0x148 build/configRover/debug/_ext/184327166/event_groups.o
 .text.xEventGroupClearBits
                0x00000000       0x50 build/configRover/debug/_ext/184327166/event_groups.o
 .text.xEventGroupGetBitsFromISR
                0x00000000       0x34 build/configRover/debug/_ext/184327166/event_groups.o
 .text.xEventGroupSetBits
                0x00000000       0xfc build/configRover/debug/_ext/184327166/event_groups.o
 .text.vEventGroupDelete
                0x00000000       0x58 build/configRover/debug/_ext/184327166/event_groups.o
 .text.vEventGroupSetBitsCallback
                0x00000000       0x1c build/configRover/debug/_ext/184327166/event_groups.o
 .text.vEventGroupClearBitsCallback
                0x00000000       0x1c build/configRover/debug/_ext/184327166/event_groups.o
 .text          0x00000000        0x0 build/configRover/debug/_ext/1536116519/debug.o
 .data          0x00000000        0x0 build/configRover/debug/_ext/1536116519/debug.o
 .bss           0x00000000        0x0 build/configRover/debug/_ext/1536116519/debug.o
 .reginfo       0x00000000       0x18 build/configRover/debug/_ext/1536116519/debug.o
 .text.debugChar
                0x00000000       0x18 build/configRover/debug/_ext/1536116519/debug.o
 .text.debugUChar
                0x00000000       0x20 build/configRover/debug/_ext/1536116519/debug.o
 .text.debugUFloat
                0x00000000       0x40 build/configRover/debug/_ext/1536116519/debug.o
 .text          0x00000000        0x0 build/configRover/debug/_ext/1360937237/timer.o
 .data          0x00000000        0x0 build/configRover/debug/_ext/1360937237/timer.o
 .bss           0x00000000        0x0 build/configRover/debug/_ext/1360937237/timer.o
 .reginfo       0x00000000       0x18 build/configRover/debug/_ext/1360937237/timer.o
 .text          0x00000000        0x0 c:/program files (x86)/microchip/xc32/v1.40/bin/bin/../../lib/gcc/pic32mx/4.8.3/../../../../pic32mx/lib/./proc/32MX795F512L\default_isr_vectors.o
 .data          0x00000000        0x0 c:/program files (x86)/microchip/xc32/v1.40/bin/bin/../../lib/gcc/pic32mx/4.8.3/../../../../pic32mx/lib/./proc/32MX795F512L\default_isr_vectors.o
 .bss           0x00000000        0x0 c:/program files (x86)/microchip/xc32/v1.40/bin/bin/../../lib/gcc/pic32mx/4.8.3/../../../../pic32mx/lib/./proc/32MX795F512L\default_isr_vectors.o
 .reginfo       0x00000000       0x18 c:/program files (x86)/microchip/xc32/v1.40/bin/bin/../../lib/gcc/pic32mx/4.8.3/../../../../pic32mx/lib/./proc/32MX795F512L\default_isr_vectors.o
 .discard       0x00000000       0xd0 c:/program files (x86)/microchip/xc32/v1.40/bin/bin/../../lib/gcc/pic32mx/4.8.3/../../../../pic32mx/lib/./proc/32MX795F512L\default_isr_vectors.o
 .data          0x00000000        0x0 c:/program files (x86)/microchip/xc32/v1.40/bin/bin/../../lib/gcc/pic32mx/4.8.3/../../../../pic32mx/lib\pic32_software_reset.o
 .bss           0x00000000        0x0 c:/program files (x86)/microchip/xc32/v1.40/bin/bin/../../lib/gcc/pic32mx/4.8.3/../../../../pic32mx/lib\pic32_software_reset.o
 .reginfo       0x00000000       0x18 c:/program files (x86)/microchip/xc32/v1.40/bin/bin/../../lib/gcc/pic32mx/4.8.3/../../../../pic32mx/lib\pic32_software_reset.o
 .text          0x00000000        0x0 c:/program files (x86)/microchip/xc32/v1.40/bin/bin/../../lib/gcc/pic32mx/4.8.3/../../../../pic32mx/lib/./proc/32MX795F512L\processor.o
 .data          0x00000000        0x0 c:/program files (x86)/microchip/xc32/v1.40/bin/bin/../../lib/gcc/pic32mx/4.8.3/../../../../pic32mx/lib/./proc/32MX795F512L\processor.o
 .bss           0x00000000        0x0 c:/program files (x86)/microchip/xc32/v1.40/bin/bin/../../lib/gcc/pic32mx/4.8.3/../../../../pic32mx/lib/./proc/32MX795F512L\processor.o
 .reginfo       0x00000000       0x18 c:/program files (x86)/microchip/xc32/v1.40/bin/bin/../../lib/gcc/pic32mx/4.8.3/../../../../pic32mx/lib/./proc/32MX795F512L\processor.o
 .data          0x00000000        0x0 c:/program files (x86)/microchip/xc32/v1.40/bin/bin/../../lib/gcc/pic32mx/4.8.3/../../../../pic32mx/lib\libpic32.a(memcpy.o)
 .bss           0x00000000        0x0 c:/program files (x86)/microchip/xc32/v1.40/bin/bin/../../lib/gcc/pic32mx/4.8.3/../../../../pic32mx/lib\libpic32.a(memcpy.o)
 .reginfo       0x00000000       0x18 c:/program files (x86)/microchip/xc32/v1.40/bin/bin/../../lib/gcc/pic32mx/4.8.3/../../../../pic32mx/lib\libpic32.a(memcpy.o)
 .data          0x00000000        0x0 c:/program files (x86)/microchip/xc32/v1.40/bin/bin/../../lib/gcc/pic32mx/4.8.3/../../../../pic32mx/lib\libpic32.a(memset.o)
 .bss           0x00000000        0x0 c:/program files (x86)/microchip/xc32/v1.40/bin/bin/../../lib/gcc/pic32mx/4.8.3/../../../../pic32mx/lib\libpic32.a(memset.o)
 .reginfo       0x00000000       0x18 c:/program files (x86)/microchip/xc32/v1.40/bin/bin/../../lib/gcc/pic32mx/4.8.3/../../../../pic32mx/lib\libpic32.a(memset.o)
 .text          0x00000000        0x0 c:/program files (x86)/microchip/xc32/v1.40/bin/bin/../../lib/gcc/pic32mx/4.8.3/../../../../pic32mx/lib\libpic32.a(default-bootstrap-exception-handler.o)
 .data          0x00000000        0x0 c:/program files (x86)/microchip/xc32/v1.40/bin/bin/../../lib/gcc/pic32mx/4.8.3/../../../../pic32mx/lib\libpic32.a(default-bootstrap-exception-handler.o)
 .bss           0x00000000        0x0 c:/program files (x86)/microchip/xc32/v1.40/bin/bin/../../lib/gcc/pic32mx/4.8.3/../../../../pic32mx/lib\libpic32.a(default-bootstrap-exception-handler.o)
 .reginfo       0x00000000       0x18 c:/program files (x86)/microchip/xc32/v1.40/bin/bin/../../lib/gcc/pic32mx/4.8.3/../../../../pic32mx/lib\libpic32.a(default-bootstrap-exception-handler.o)
 .text          0x00000000        0x0 c:/program files (x86)/microchip/xc32/v1.40/bin/bin/../../lib/gcc/pic32mx/4.8.3/../../../../pic32mx/lib\libpic32.a(default-on-reset.o)
 .data          0x00000000        0x0 c:/program files (x86)/microchip/xc32/v1.40/bin/bin/../../lib/gcc/pic32mx/4.8.3/../../../../pic32mx/lib\libpic32.a(default-on-reset.o)
 .bss           0x00000000        0x0 c:/program files (x86)/microchip/xc32/v1.40/bin/bin/../../lib/gcc/pic32mx/4.8.3/../../../../pic32mx/lib\libpic32.a(default-on-reset.o)
 .reginfo       0x00000000       0x18 c:/program files (x86)/microchip/xc32/v1.40/bin/bin/../../lib/gcc/pic32mx/4.8.3/../../../../pic32mx/lib\libpic32.a(default-on-reset.o)
 .text          0x00000000        0x0 c:/program files (x86)/microchip/xc32/v1.40/bin/bin/../../lib/gcc/pic32mx/4.8.3/../../../../pic32mx/lib\libpic32.a(default-on-bootstrap.o)
 .data          0x00000000        0x0 c:/program files (x86)/microchip/xc32/v1.40/bin/bin/../../lib/gcc/pic32mx/4.8.3/../../../../pic32mx/lib\libpic32.a(default-on-bootstrap.o)
 .bss           0x00000000        0x0 c:/program files (x86)/microchip/xc32/v1.40/bin/bin/../../lib/gcc/pic32mx/4.8.3/../../../../pic32mx/lib\libpic32.a(default-on-bootstrap.o)
 .reginfo       0x00000000       0x18 c:/program files (x86)/microchip/xc32/v1.40/bin/bin/../../lib/gcc/pic32mx/4.8.3/../../../../pic32mx/lib\libpic32.a(default-on-bootstrap.o)
 .data          0x00000000        0x0 c:/program files (x86)/microchip/xc32/v1.40/bin/bin/../../lib/gcc/pic32mx/4.8.3/../../../../pic32mx/lib\libpic32.a(default-nmi-handler.o)
 .bss           0x00000000        0x0 c:/program files (x86)/microchip/xc32/v1.40/bin/bin/../../lib/gcc/pic32mx/4.8.3/../../../../pic32mx/lib\libpic32.a(default-nmi-handler.o)
 .reginfo       0x00000000       0x18 c:/program files (x86)/microchip/xc32/v1.40/bin/bin/../../lib/gcc/pic32mx/4.8.3/../../../../pic32mx/lib\libpic32.a(default-nmi-handler.o)
 .text          0x00000000        0x0 c:/program files (x86)/microchip/xc32/v1.40/bin/bin/../../lib/gcc/pic32mx/4.8.3/../../../../pic32mx/lib\libpic32.a(general-exception.o)
 .data          0x00000000        0x0 c:/program files (x86)/microchip/xc32/v1.40/bin/bin/../../lib/gcc/pic32mx/4.8.3/../../../../pic32mx/lib\libpic32.a(general-exception.o)
 .bss           0x00000000        0x0 c:/program files (x86)/microchip/xc32/v1.40/bin/bin/../../lib/gcc/pic32mx/4.8.3/../../../../pic32mx/lib\libpic32.a(general-exception.o)
 .reginfo       0x00000000       0x18 c:/program files (x86)/microchip/xc32/v1.40/bin/bin/../../lib/gcc/pic32mx/4.8.3/../../../../pic32mx/lib\libpic32.a(general-exception.o)
 .text          0x00000000        0x0 c:/program files (x86)/microchip/xc32/v1.40/bin/bin/../../lib/gcc/pic32mx/4.8.3/../../../../pic32mx/lib\libpic32.a(vector0.o)
 .data          0x00000000        0x0 c:/program files (x86)/microchip/xc32/v1.40/bin/bin/../../lib/gcc/pic32mx/4.8.3/../../../../pic32mx/lib\libpic32.a(vector0.o)
 .bss           0x00000000        0x0 c:/program files (x86)/microchip/xc32/v1.40/bin/bin/../../lib/gcc/pic32mx/4.8.3/../../../../pic32mx/lib\libpic32.a(vector0.o)
 .reginfo       0x00000000       0x18 c:/program files (x86)/microchip/xc32/v1.40/bin/bin/../../lib/gcc/pic32mx/4.8.3/../../../../pic32mx/lib\libpic32.a(vector0.o)
 .text          0x00000000        0x0 c:/program files (x86)/microchip/xc32/v1.40/bin/bin/../../lib/gcc/pic32mx/4.8.3/../../../../pic32mx/lib\libpic32.a(vector2.o)
 .data          0x00000000        0x0 c:/program files (x86)/microchip/xc32/v1.40/bin/bin/../../lib/gcc/pic32mx/4.8.3/../../../../pic32mx/lib\libpic32.a(vector2.o)
 .bss           0x00000000        0x0 c:/program files (x86)/microchip/xc32/v1.40/bin/bin/../../lib/gcc/pic32mx/4.8.3/../../../../pic32mx/lib\libpic32.a(vector2.o)
 .reginfo       0x00000000       0x18 c:/program files (x86)/microchip/xc32/v1.40/bin/bin/../../lib/gcc/pic32mx/4.8.3/../../../../pic32mx/lib\libpic32.a(vector2.o)
 .text          0x00000000        0x0 c:/program files (x86)/microchip/xc32/v1.40/bin/bin/../../lib/gcc/pic32mx/4.8.3/../../../../pic32mx/lib\libpic32.a(vector3.o)
 .data          0x00000000        0x0 c:/program files (x86)/microchip/xc32/v1.40/bin/bin/../../lib/gcc/pic32mx/4.8.3/../../../../pic32mx/lib\libpic32.a(vector3.o)
 .bss           0x00000000        0x0 c:/program files (x86)/microchip/xc32/v1.40/bin/bin/../../lib/gcc/pic32mx/4.8.3/../../../../pic32mx/lib\libpic32.a(vector3.o)
 .reginfo       0x00000000       0x18 c:/program files (x86)/microchip/xc32/v1.40/bin/bin/../../lib/gcc/pic32mx/4.8.3/../../../../pic32mx/lib\libpic32.a(vector3.o)
 .text          0x00000000        0x0 c:/program files (x86)/microchip/xc32/v1.40/bin/bin/../../lib/gcc/pic32mx/4.8.3/../../../../pic32mx/lib\libpic32.a(vector5.o)
 .data          0x00000000        0x0 c:/program files (x86)/microchip/xc32/v1.40/bin/bin/../../lib/gcc/pic32mx/4.8.3/../../../../pic32mx/lib\libpic32.a(vector5.o)
 .bss           0x00000000        0x0 c:/program files (x86)/microchip/xc32/v1.40/bin/bin/../../lib/gcc/pic32mx/4.8.3/../../../../pic32mx/lib\libpic32.a(vector5.o)
 .reginfo       0x00000000       0x18 c:/program files (x86)/microchip/xc32/v1.40/bin/bin/../../lib/gcc/pic32mx/4.8.3/../../../../pic32mx/lib\libpic32.a(vector5.o)
 .text          0x00000000        0x0 c:/program files (x86)/microchip/xc32/v1.40/bin/bin/../../lib/gcc/pic32mx/4.8.3/../../../../pic32mx/lib\libpic32.a(vector6.o)
 .data          0x00000000        0x0 c:/program files (x86)/microchip/xc32/v1.40/bin/bin/../../lib/gcc/pic32mx/4.8.3/../../../../pic32mx/lib\libpic32.a(vector6.o)
 .bss           0x00000000        0x0 c:/program files (x86)/microchip/xc32/v1.40/bin/bin/../../lib/gcc/pic32mx/4.8.3/../../../../pic32mx/lib\libpic32.a(vector6.o)
 .reginfo       0x00000000       0x18 c:/program files (x86)/microchip/xc32/v1.40/bin/bin/../../lib/gcc/pic32mx/4.8.3/../../../../pic32mx/lib\libpic32.a(vector6.o)
 .text          0x00000000        0x0 c:/program files (x86)/microchip/xc32/v1.40/bin/bin/../../lib/gcc/pic32mx/4.8.3/../../../../pic32mx/lib\libpic32.a(vector9.o)
 .data          0x00000000        0x0 c:/program files (x86)/microchip/xc32/v1.40/bin/bin/../../lib/gcc/pic32mx/4.8.3/../../../../pic32mx/lib\libpic32.a(vector9.o)
 .bss           0x00000000        0x0 c:/program files (x86)/microchip/xc32/v1.40/bin/bin/../../lib/gcc/pic32mx/4.8.3/../../../../pic32mx/lib\libpic32.a(vector9.o)
 .reginfo       0x00000000       0x18 c:/program files (x86)/microchip/xc32/v1.40/bin/bin/../../lib/gcc/pic32mx/4.8.3/../../../../pic32mx/lib\libpic32.a(vector9.o)
 .text          0x00000000        0x0 c:/program files (x86)/microchip/xc32/v1.40/bin/bin/../../lib/gcc/pic32mx/4.8.3/../../../../pic32mx/lib\libpic32.a(vector10.o)
 .data          0x00000000        0x0 c:/program files (x86)/microchip/xc32/v1.40/bin/bin/../../lib/gcc/pic32mx/4.8.3/../../../../pic32mx/lib\libpic32.a(vector10.o)
 .bss           0x00000000        0x0 c:/program files (x86)/microchip/xc32/v1.40/bin/bin/../../lib/gcc/pic32mx/4.8.3/../../../../pic32mx/lib\libpic32.a(vector10.o)
 .reginfo       0x00000000       0x18 c:/program files (x86)/microchip/xc32/v1.40/bin/bin/../../lib/gcc/pic32mx/4.8.3/../../../../pic32mx/lib\libpic32.a(vector10.o)
 .text          0x00000000        0x0 c:/program files (x86)/microchip/xc32/v1.40/bin/bin/../../lib/gcc/pic32mx/4.8.3/../../../../pic32mx/lib\libpic32.a(vector13.o)
 .data          0x00000000        0x0 c:/program files (x86)/microchip/xc32/v1.40/bin/bin/../../lib/gcc/pic32mx/4.8.3/../../../../pic32mx/lib\libpic32.a(vector13.o)
 .bss           0x00000000        0x0 c:/program files (x86)/microchip/xc32/v1.40/bin/bin/../../lib/gcc/pic32mx/4.8.3/../../../../pic32mx/lib\libpic32.a(vector13.o)
 .reginfo       0x00000000       0x18 c:/program files (x86)/microchip/xc32/v1.40/bin/bin/../../lib/gcc/pic32mx/4.8.3/../../../../pic32mx/lib\libpic32.a(vector13.o)
 .text          0x00000000        0x0 c:/program files (x86)/microchip/xc32/v1.40/bin/bin/../../lib/gcc/pic32mx/4.8.3/../../../../pic32mx/lib\libpic32.a(vector14.o)
 .data          0x00000000        0x0 c:/program files (x86)/microchip/xc32/v1.40/bin/bin/../../lib/gcc/pic32mx/4.8.3/../../../../pic32mx/lib\libpic32.a(vector14.o)
 .bss           0x00000000        0x0 c:/program files (x86)/microchip/xc32/v1.40/bin/bin/../../lib/gcc/pic32mx/4.8.3/../../../../pic32mx/lib\libpic32.a(vector14.o)
 .reginfo       0x00000000       0x18 c:/program files (x86)/microchip/xc32/v1.40/bin/bin/../../lib/gcc/pic32mx/4.8.3/../../../../pic32mx/lib\libpic32.a(vector14.o)
 .text          0x00000000        0x0 c:/program files (x86)/microchip/xc32/v1.40/bin/bin/../../lib/gcc/pic32mx/4.8.3/../../../../pic32mx/lib\libpic32.a(vector15.o)
 .data          0x00000000        0x0 c:/program files (x86)/microchip/xc32/v1.40/bin/bin/../../lib/gcc/pic32mx/4.8.3/../../../../pic32mx/lib\libpic32.a(vector15.o)
 .bss           0x00000000        0x0 c:/program files (x86)/microchip/xc32/v1.40/bin/bin/../../lib/gcc/pic32mx/4.8.3/../../../../pic32mx/lib\libpic32.a(vector15.o)
 .reginfo       0x00000000       0x18 c:/program files (x86)/microchip/xc32/v1.40/bin/bin/../../lib/gcc/pic32mx/4.8.3/../../../../pic32mx/lib\libpic32.a(vector15.o)
 .text          0x00000000        0x0 c:/program files (x86)/microchip/xc32/v1.40/bin/bin/../../lib/gcc/pic32mx/4.8.3/../../../../pic32mx/lib\libpic32.a(vector17.o)
 .data          0x00000000        0x0 c:/program files (x86)/microchip/xc32/v1.40/bin/bin/../../lib/gcc/pic32mx/4.8.3/../../../../pic32mx/lib\libpic32.a(vector17.o)
 .bss           0x00000000        0x0 c:/program files (x86)/microchip/xc32/v1.40/bin/bin/../../lib/gcc/pic32mx/4.8.3/../../../../pic32mx/lib\libpic32.a(vector17.o)
 .reginfo       0x00000000       0x18 c:/program files (x86)/microchip/xc32/v1.40/bin/bin/../../lib/gcc/pic32mx/4.8.3/../../../../pic32mx/lib\libpic32.a(vector17.o)
 .text          0x00000000        0x0 c:/program files (x86)/microchip/xc32/v1.40/bin/bin/../../lib/gcc/pic32mx/4.8.3/../../../../pic32mx/lib\libpic32.a(vector18.o)
 .data          0x00000000        0x0 c:/program files (x86)/microchip/xc32/v1.40/bin/bin/../../lib/gcc/pic32mx/4.8.3/../../../../pic32mx/lib\libpic32.a(vector18.o)
 .bss           0x00000000        0x0 c:/program files (x86)/microchip/xc32/v1.40/bin/bin/../../lib/gcc/pic32mx/4.8.3/../../../../pic32mx/lib\libpic32.a(vector18.o)
 .reginfo       0x00000000       0x18 c:/program files (x86)/microchip/xc32/v1.40/bin/bin/../../lib/gcc/pic32mx/4.8.3/../../../../pic32mx/lib\libpic32.a(vector18.o)
 .text          0x00000000        0x0 c:/program files (x86)/microchip/xc32/v1.40/bin/bin/../../lib/gcc/pic32mx/4.8.3/../../../../pic32mx/lib\libpic32.a(vector19.o)
 .data          0x00000000        0x0 c:/program files (x86)/microchip/xc32/v1.40/bin/bin/../../lib/gcc/pic32mx/4.8.3/../../../../pic32mx/lib\libpic32.a(vector19.o)
 .bss           0x00000000        0x0 c:/program files (x86)/microchip/xc32/v1.40/bin/bin/../../lib/gcc/pic32mx/4.8.3/../../../../pic32mx/lib\libpic32.a(vector19.o)
 .reginfo       0x00000000       0x18 c:/program files (x86)/microchip/xc32/v1.40/bin/bin/../../lib/gcc/pic32mx/4.8.3/../../../../pic32mx/lib\libpic32.a(vector19.o)
 .text          0x00000000        0x0 c:/program files (x86)/microchip/xc32/v1.40/bin/bin/../../lib/gcc/pic32mx/4.8.3/../../../../pic32mx/lib\libpic32.a(vector21.o)
 .data          0x00000000        0x0 c:/program files (x86)/microchip/xc32/v1.40/bin/bin/../../lib/gcc/pic32mx/4.8.3/../../../../pic32mx/lib\libpic32.a(vector21.o)
 .bss           0x00000000        0x0 c:/program files (x86)/microchip/xc32/v1.40/bin/bin/../../lib/gcc/pic32mx/4.8.3/../../../../pic32mx/lib\libpic32.a(vector21.o)
 .reginfo       0x00000000       0x18 c:/program files (x86)/microchip/xc32/v1.40/bin/bin/../../lib/gcc/pic32mx/4.8.3/../../../../pic32mx/lib\libpic32.a(vector21.o)
 .text          0x00000000        0x0 c:/program files (x86)/microchip/xc32/v1.40/bin/bin/../../lib/gcc/pic32mx/4.8.3/../../../../pic32mx/lib\libpic32.a(vector22.o)
 .data          0x00000000        0x0 c:/program files (x86)/microchip/xc32/v1.40/bin/bin/../../lib/gcc/pic32mx/4.8.3/../../../../pic32mx/lib\libpic32.a(vector22.o)
 .bss           0x00000000        0x0 c:/program files (x86)/microchip/xc32/v1.40/bin/bin/../../lib/gcc/pic32mx/4.8.3/../../../../pic32mx/lib\libpic32.a(vector22.o)
 .reginfo       0x00000000       0x18 c:/program files (x86)/microchip/xc32/v1.40/bin/bin/../../lib/gcc/pic32mx/4.8.3/../../../../pic32mx/lib\libpic32.a(vector22.o)
 .text          0x00000000        0x0 c:/program files (x86)/microchip/xc32/v1.40/bin/bin/../../lib/gcc/pic32mx/4.8.3/../../../../pic32mx/lib\libpic32.a(vector23.o)
 .data          0x00000000        0x0 c:/program files (x86)/microchip/xc32/v1.40/bin/bin/../../lib/gcc/pic32mx/4.8.3/../../../../pic32mx/lib\libpic32.a(vector23.o)
 .bss           0x00000000        0x0 c:/program files (x86)/microchip/xc32/v1.40/bin/bin/../../lib/gcc/pic32mx/4.8.3/../../../../pic32mx/lib\libpic32.a(vector23.o)
 .reginfo       0x00000000       0x18 c:/program files (x86)/microchip/xc32/v1.40/bin/bin/../../lib/gcc/pic32mx/4.8.3/../../../../pic32mx/lib\libpic32.a(vector23.o)
 .text          0x00000000        0x0 c:/program files (x86)/microchip/xc32/v1.40/bin/bin/../../lib/gcc/pic32mx/4.8.3/../../../../pic32mx/lib\libpic32.a(vector25.o)
 .data          0x00000000        0x0 c:/program files (x86)/microchip/xc32/v1.40/bin/bin/../../lib/gcc/pic32mx/4.8.3/../../../../pic32mx/lib\libpic32.a(vector25.o)
 .bss           0x00000000        0x0 c:/program files (x86)/microchip/xc32/v1.40/bin/bin/../../lib/gcc/pic32mx/4.8.3/../../../../pic32mx/lib\libpic32.a(vector25.o)
 .reginfo       0x00000000       0x18 c:/program files (x86)/microchip/xc32/v1.40/bin/bin/../../lib/gcc/pic32mx/4.8.3/../../../../pic32mx/lib\libpic32.a(vector25.o)
 .text          0x00000000        0x0 c:/program files (x86)/microchip/xc32/v1.40/bin/bin/../../lib/gcc/pic32mx/4.8.3/../../../../pic32mx/lib\libpic32.a(vector26.o)
 .data          0x00000000        0x0 c:/program files (x86)/microchip/xc32/v1.40/bin/bin/../../lib/gcc/pic32mx/4.8.3/../../../../pic32mx/lib\libpic32.a(vector26.o)
 .bss           0x00000000        0x0 c:/program files (x86)/microchip/xc32/v1.40/bin/bin/../../lib/gcc/pic32mx/4.8.3/../../../../pic32mx/lib\libpic32.a(vector26.o)
 .reginfo       0x00000000       0x18 c:/program files (x86)/microchip/xc32/v1.40/bin/bin/../../lib/gcc/pic32mx/4.8.3/../../../../pic32mx/lib\libpic32.a(vector26.o)
 .text          0x00000000        0x0 c:/program files (x86)/microchip/xc32/v1.40/bin/bin/../../lib/gcc/pic32mx/4.8.3/../../../../pic32mx/lib\libpic32.a(vector27.o)
 .data          0x00000000        0x0 c:/program files (x86)/microchip/xc32/v1.40/bin/bin/../../lib/gcc/pic32mx/4.8.3/../../../../pic32mx/lib\libpic32.a(vector27.o)
 .bss           0x00000000        0x0 c:/program files (x86)/microchip/xc32/v1.40/bin/bin/../../lib/gcc/pic32mx/4.8.3/../../../../pic32mx/lib\libpic32.a(vector27.o)
 .reginfo       0x00000000       0x18 c:/program files (x86)/microchip/xc32/v1.40/bin/bin/../../lib/gcc/pic32mx/4.8.3/../../../../pic32mx/lib\libpic32.a(vector27.o)
 .text          0x00000000        0x0 c:/program files (x86)/microchip/xc32/v1.40/bin/bin/../../lib/gcc/pic32mx/4.8.3/../../../../pic32mx/lib\libpic32.a(vector28.o)
 .data          0x00000000        0x0 c:/program files (x86)/microchip/xc32/v1.40/bin/bin/../../lib/gcc/pic32mx/4.8.3/../../../../pic32mx/lib\libpic32.a(vector28.o)
 .bss           0x00000000        0x0 c:/program files (x86)/microchip/xc32/v1.40/bin/bin/../../lib/gcc/pic32mx/4.8.3/../../../../pic32mx/lib\libpic32.a(vector28.o)
 .reginfo       0x00000000       0x18 c:/program files (x86)/microchip/xc32/v1.40/bin/bin/../../lib/gcc/pic32mx/4.8.3/../../../../pic32mx/lib\libpic32.a(vector28.o)
 .text          0x00000000        0x0 c:/program files (x86)/microchip/xc32/v1.40/bin/bin/../../lib/gcc/pic32mx/4.8.3/../../../../pic32mx/lib\libpic32.a(vector29.o)
 .data          0x00000000        0x0 c:/program files (x86)/microchip/xc32/v1.40/bin/bin/../../lib/gcc/pic32mx/4.8.3/../../../../pic32mx/lib\libpic32.a(vector29.o)
 .bss           0x00000000        0x0 c:/program files (x86)/microchip/xc32/v1.40/bin/bin/../../lib/gcc/pic32mx/4.8.3/../../../../pic32mx/lib\libpic32.a(vector29.o)
 .reginfo       0x00000000       0x18 c:/program files (x86)/microchip/xc32/v1.40/bin/bin/../../lib/gcc/pic32mx/4.8.3/../../../../pic32mx/lib\libpic32.a(vector29.o)
 .text          0x00000000        0x0 c:/program files (x86)/microchip/xc32/v1.40/bin/bin/../../lib/gcc/pic32mx/4.8.3/../../../../pic32mx/lib\libpic32.a(vector30.o)
 .data          0x00000000        0x0 c:/program files (x86)/microchip/xc32/v1.40/bin/bin/../../lib/gcc/pic32mx/4.8.3/../../../../pic32mx/lib\libpic32.a(vector30.o)
 .bss           0x00000000        0x0 c:/program files (x86)/microchip/xc32/v1.40/bin/bin/../../lib/gcc/pic32mx/4.8.3/../../../../pic32mx/lib\libpic32.a(vector30.o)
 .reginfo       0x00000000       0x18 c:/program files (x86)/microchip/xc32/v1.40/bin/bin/../../lib/gcc/pic32mx/4.8.3/../../../../pic32mx/lib\libpic32.a(vector30.o)
 .text          0x00000000        0x0 c:/program files (x86)/microchip/xc32/v1.40/bin/bin/../../lib/gcc/pic32mx/4.8.3/../../../../pic32mx/lib\libpic32.a(vector31.o)
 .data          0x00000000        0x0 c:/program files (x86)/microchip/xc32/v1.40/bin/bin/../../lib/gcc/pic32mx/4.8.3/../../../../pic32mx/lib\libpic32.a(vector31.o)
 .bss           0x00000000        0x0 c:/program files (x86)/microchip/xc32/v1.40/bin/bin/../../lib/gcc/pic32mx/4.8.3/../../../../pic32mx/lib\libpic32.a(vector31.o)
 .reginfo       0x00000000       0x18 c:/program files (x86)/microchip/xc32/v1.40/bin/bin/../../lib/gcc/pic32mx/4.8.3/../../../../pic32mx/lib\libpic32.a(vector31.o)
 .text          0x00000000        0x0 c:/program files (x86)/microchip/xc32/v1.40/bin/bin/../../lib/gcc/pic32mx/4.8.3/../../../../pic32mx/lib\libpic32.a(vector33.o)
 .data          0x00000000        0x0 c:/program files (x86)/microchip/xc32/v1.40/bin/bin/../../lib/gcc/pic32mx/4.8.3/../../../../pic32mx/lib\libpic32.a(vector33.o)
 .bss           0x00000000        0x0 c:/program files (x86)/microchip/xc32/v1.40/bin/bin/../../lib/gcc/pic32mx/4.8.3/../../../../pic32mx/lib\libpic32.a(vector33.o)
 .reginfo       0x00000000       0x18 c:/program files (x86)/microchip/xc32/v1.40/bin/bin/../../lib/gcc/pic32mx/4.8.3/../../../../pic32mx/lib\libpic32.a(vector33.o)
 .text          0x00000000        0x0 c:/program files (x86)/microchip/xc32/v1.40/bin/bin/../../lib/gcc/pic32mx/4.8.3/../../../../pic32mx/lib\libpic32.a(vector34.o)
 .data          0x00000000        0x0 c:/program files (x86)/microchip/xc32/v1.40/bin/bin/../../lib/gcc/pic32mx/4.8.3/../../../../pic32mx/lib\libpic32.a(vector34.o)
 .bss           0x00000000        0x0 c:/program files (x86)/microchip/xc32/v1.40/bin/bin/../../lib/gcc/pic32mx/4.8.3/../../../../pic32mx/lib\libpic32.a(vector34.o)
 .reginfo       0x00000000       0x18 c:/program files (x86)/microchip/xc32/v1.40/bin/bin/../../lib/gcc/pic32mx/4.8.3/../../../../pic32mx/lib\libpic32.a(vector34.o)
 .text          0x00000000        0x0 c:/program files (x86)/microchip/xc32/v1.40/bin/bin/../../lib/gcc/pic32mx/4.8.3/../../../../pic32mx/lib\libpic32.a(vector35.o)
 .data          0x00000000        0x0 c:/program files (x86)/microchip/xc32/v1.40/bin/bin/../../lib/gcc/pic32mx/4.8.3/../../../../pic32mx/lib\libpic32.a(vector35.o)
 .bss           0x00000000        0x0 c:/program files (x86)/microchip/xc32/v1.40/bin/bin/../../lib/gcc/pic32mx/4.8.3/../../../../pic32mx/lib\libpic32.a(vector35.o)
 .reginfo       0x00000000       0x18 c:/program files (x86)/microchip/xc32/v1.40/bin/bin/../../lib/gcc/pic32mx/4.8.3/../../../../pic32mx/lib\libpic32.a(vector35.o)
 .text          0x00000000        0x0 c:/program files (x86)/microchip/xc32/v1.40/bin/bin/../../lib/gcc/pic32mx/4.8.3/../../../../pic32mx/lib\libpic32.a(vector36.o)
 .data          0x00000000        0x0 c:/program files (x86)/microchip/xc32/v1.40/bin/bin/../../lib/gcc/pic32mx/4.8.3/../../../../pic32mx/lib\libpic32.a(vector36.o)
 .bss           0x00000000        0x0 c:/program files (x86)/microchip/xc32/v1.40/bin/bin/../../lib/gcc/pic32mx/4.8.3/../../../../pic32mx/lib\libpic32.a(vector36.o)
 .reginfo       0x00000000       0x18 c:/program files (x86)/microchip/xc32/v1.40/bin/bin/../../lib/gcc/pic32mx/4.8.3/../../../../pic32mx/lib\libpic32.a(vector36.o)
 .text          0x00000000        0x0 c:/program files (x86)/microchip/xc32/v1.40/bin/bin/../../lib/gcc/pic32mx/4.8.3/../../../../pic32mx/lib\libpic32.a(vector37.o)
 .data          0x00000000        0x0 c:/program files (x86)/microchip/xc32/v1.40/bin/bin/../../lib/gcc/pic32mx/4.8.3/../../../../pic32mx/lib\libpic32.a(vector37.o)
 .bss           0x00000000        0x0 c:/program files (x86)/microchip/xc32/v1.40/bin/bin/../../lib/gcc/pic32mx/4.8.3/../../../../pic32mx/lib\libpic32.a(vector37.o)
 .reginfo       0x00000000       0x18 c:/program files (x86)/microchip/xc32/v1.40/bin/bin/../../lib/gcc/pic32mx/4.8.3/../../../../pic32mx/lib\libpic32.a(vector37.o)
 .text          0x00000000        0x0 c:/program files (x86)/microchip/xc32/v1.40/bin/bin/../../lib/gcc/pic32mx/4.8.3/../../../../pic32mx/lib\libpic32.a(vector38.o)
 .data          0x00000000        0x0 c:/program files (x86)/microchip/xc32/v1.40/bin/bin/../../lib/gcc/pic32mx/4.8.3/../../../../pic32mx/lib\libpic32.a(vector38.o)
 .bss           0x00000000        0x0 c:/program files (x86)/microchip/xc32/v1.40/bin/bin/../../lib/gcc/pic32mx/4.8.3/../../../../pic32mx/lib\libpic32.a(vector38.o)
 .reginfo       0x00000000       0x18 c:/program files (x86)/microchip/xc32/v1.40/bin/bin/../../lib/gcc/pic32mx/4.8.3/../../../../pic32mx/lib\libpic32.a(vector38.o)
 .text          0x00000000        0x0 c:/program files (x86)/microchip/xc32/v1.40/bin/bin/../../lib/gcc/pic32mx/4.8.3/../../../../pic32mx/lib\libpic32.a(vector39.o)
 .data          0x00000000        0x0 c:/program files (x86)/microchip/xc32/v1.40/bin/bin/../../lib/gcc/pic32mx/4.8.3/../../../../pic32mx/lib\libpic32.a(vector39.o)
 .bss           0x00000000        0x0 c:/program files (x86)/microchip/xc32/v1.40/bin/bin/../../lib/gcc/pic32mx/4.8.3/../../../../pic32mx/lib\libpic32.a(vector39.o)
 .reginfo       0x00000000       0x18 c:/program files (x86)/microchip/xc32/v1.40/bin/bin/../../lib/gcc/pic32mx/4.8.3/../../../../pic32mx/lib\libpic32.a(vector39.o)
 .text          0x00000000        0x0 c:/program files (x86)/microchip/xc32/v1.40/bin/bin/../../lib/gcc/pic32mx/4.8.3/../../../../pic32mx/lib\libpic32.a(vector40.o)
 .data          0x00000000        0x0 c:/program files (x86)/microchip/xc32/v1.40/bin/bin/../../lib/gcc/pic32mx/4.8.3/../../../../pic32mx/lib\libpic32.a(vector40.o)
 .bss           0x00000000        0x0 c:/program files (x86)/microchip/xc32/v1.40/bin/bin/../../lib/gcc/pic32mx/4.8.3/../../../../pic32mx/lib\libpic32.a(vector40.o)
 .reginfo       0x00000000       0x18 c:/program files (x86)/microchip/xc32/v1.40/bin/bin/../../lib/gcc/pic32mx/4.8.3/../../../../pic32mx/lib\libpic32.a(vector40.o)
 .text          0x00000000        0x0 c:/program files (x86)/microchip/xc32/v1.40/bin/bin/../../lib/gcc/pic32mx/4.8.3/../../../../pic32mx/lib\libpic32.a(vector41.o)
 .data          0x00000000        0x0 c:/program files (x86)/microchip/xc32/v1.40/bin/bin/../../lib/gcc/pic32mx/4.8.3/../../../../pic32mx/lib\libpic32.a(vector41.o)
 .bss           0x00000000        0x0 c:/program files (x86)/microchip/xc32/v1.40/bin/bin/../../lib/gcc/pic32mx/4.8.3/../../../../pic32mx/lib\libpic32.a(vector41.o)
 .reginfo       0x00000000       0x18 c:/program files (x86)/microchip/xc32/v1.40/bin/bin/../../lib/gcc/pic32mx/4.8.3/../../../../pic32mx/lib\libpic32.a(vector41.o)
 .text          0x00000000        0x0 c:/program files (x86)/microchip/xc32/v1.40/bin/bin/../../lib/gcc/pic32mx/4.8.3/../../../../pic32mx/lib\libpic32.a(vector42.o)
 .data          0x00000000        0x0 c:/program files (x86)/microchip/xc32/v1.40/bin/bin/../../lib/gcc/pic32mx/4.8.3/../../../../pic32mx/lib\libpic32.a(vector42.o)
 .bss           0x00000000        0x0 c:/program files (x86)/microchip/xc32/v1.40/bin/bin/../../lib/gcc/pic32mx/4.8.3/../../../../pic32mx/lib\libpic32.a(vector42.o)
 .reginfo       0x00000000       0x18 c:/program files (x86)/microchip/xc32/v1.40/bin/bin/../../lib/gcc/pic32mx/4.8.3/../../../../pic32mx/lib\libpic32.a(vector42.o)
 .text          0x00000000        0x0 c:/program files (x86)/microchip/xc32/v1.40/bin/bin/../../lib/gcc/pic32mx/4.8.3/../../../../pic32mx/lib\libpic32.a(vector43.o)
 .data          0x00000000        0x0 c:/program files (x86)/microchip/xc32/v1.40/bin/bin/../../lib/gcc/pic32mx/4.8.3/../../../../pic32mx/lib\libpic32.a(vector43.o)
 .bss           0x00000000        0x0 c:/program files (x86)/microchip/xc32/v1.40/bin/bin/../../lib/gcc/pic32mx/4.8.3/../../../../pic32mx/lib\libpic32.a(vector43.o)
 .reginfo       0x00000000       0x18 c:/program files (x86)/microchip/xc32/v1.40/bin/bin/../../lib/gcc/pic32mx/4.8.3/../../../../pic32mx/lib\libpic32.a(vector43.o)
 .text          0x00000000        0x0 c:/program files (x86)/microchip/xc32/v1.40/bin/bin/../../lib/gcc/pic32mx/4.8.3/../../../../pic32mx/lib\libpic32.a(vector44.o)
 .data          0x00000000        0x0 c:/program files (x86)/microchip/xc32/v1.40/bin/bin/../../lib/gcc/pic32mx/4.8.3/../../../../pic32mx/lib\libpic32.a(vector44.o)
 .bss           0x00000000        0x0 c:/program files (x86)/microchip/xc32/v1.40/bin/bin/../../lib/gcc/pic32mx/4.8.3/../../../../pic32mx/lib\libpic32.a(vector44.o)
 .reginfo       0x00000000       0x18 c:/program files (x86)/microchip/xc32/v1.40/bin/bin/../../lib/gcc/pic32mx/4.8.3/../../../../pic32mx/lib\libpic32.a(vector44.o)
 .text          0x00000000        0x0 c:/program files (x86)/microchip/xc32/v1.40/bin/bin/../../lib/gcc/pic32mx/4.8.3/../../../../pic32mx/lib\libpic32.a(vector45.o)
 .data          0x00000000        0x0 c:/program files (x86)/microchip/xc32/v1.40/bin/bin/../../lib/gcc/pic32mx/4.8.3/../../../../pic32mx/lib\libpic32.a(vector45.o)
 .bss           0x00000000        0x0 c:/program files (x86)/microchip/xc32/v1.40/bin/bin/../../lib/gcc/pic32mx/4.8.3/../../../../pic32mx/lib\libpic32.a(vector45.o)
 .reginfo       0x00000000       0x18 c:/program files (x86)/microchip/xc32/v1.40/bin/bin/../../lib/gcc/pic32mx/4.8.3/../../../../pic32mx/lib\libpic32.a(vector45.o)
 .text          0x00000000        0x0 c:/program files (x86)/microchip/xc32/v1.40/bin/bin/../../lib/gcc/pic32mx/4.8.3/../../../../pic32mx/lib\libpic32.a(vector46.o)
 .data          0x00000000        0x0 c:/program files (x86)/microchip/xc32/v1.40/bin/bin/../../lib/gcc/pic32mx/4.8.3/../../../../pic32mx/lib\libpic32.a(vector46.o)
 .bss           0x00000000        0x0 c:/program files (x86)/microchip/xc32/v1.40/bin/bin/../../lib/gcc/pic32mx/4.8.3/../../../../pic32mx/lib\libpic32.a(vector46.o)
 .reginfo       0x00000000       0x18 c:/program files (x86)/microchip/xc32/v1.40/bin/bin/../../lib/gcc/pic32mx/4.8.3/../../../../pic32mx/lib\libpic32.a(vector46.o)
 .text          0x00000000        0x0 c:/program files (x86)/microchip/xc32/v1.40/bin/bin/../../lib/gcc/pic32mx/4.8.3/../../../../pic32mx/lib\libpic32.a(vector47.o)
 .data          0x00000000        0x0 c:/program files (x86)/microchip/xc32/v1.40/bin/bin/../../lib/gcc/pic32mx/4.8.3/../../../../pic32mx/lib\libpic32.a(vector47.o)
 .bss           0x00000000        0x0 c:/program files (x86)/microchip/xc32/v1.40/bin/bin/../../lib/gcc/pic32mx/4.8.3/../../../../pic32mx/lib\libpic32.a(vector47.o)
 .reginfo       0x00000000       0x18 c:/program files (x86)/microchip/xc32/v1.40/bin/bin/../../lib/gcc/pic32mx/4.8.3/../../../../pic32mx/lib\libpic32.a(vector47.o)
 .text          0x00000000        0x0 c:/program files (x86)/microchip/xc32/v1.40/bin/bin/../../lib/gcc/pic32mx/4.8.3/../../../../pic32mx/lib\libpic32.a(vector48.o)
 .data          0x00000000        0x0 c:/program files (x86)/microchip/xc32/v1.40/bin/bin/../../lib/gcc/pic32mx/4.8.3/../../../../pic32mx/lib\libpic32.a(vector48.o)
 .bss           0x00000000        0x0 c:/program files (x86)/microchip/xc32/v1.40/bin/bin/../../lib/gcc/pic32mx/4.8.3/../../../../pic32mx/lib\libpic32.a(vector48.o)
 .reginfo       0x00000000       0x18 c:/program files (x86)/microchip/xc32/v1.40/bin/bin/../../lib/gcc/pic32mx/4.8.3/../../../../pic32mx/lib\libpic32.a(vector48.o)
 .text          0x00000000        0x0 c:/program files (x86)/microchip/xc32/v1.40/bin/bin/../../lib/gcc/pic32mx/4.8.3/../../../../pic32mx/lib\libpic32.a(vector49.o)
 .data          0x00000000        0x0 c:/program files (x86)/microchip/xc32/v1.40/bin/bin/../../lib/gcc/pic32mx/4.8.3/../../../../pic32mx/lib\libpic32.a(vector49.o)
 .bss           0x00000000        0x0 c:/program files (x86)/microchip/xc32/v1.40/bin/bin/../../lib/gcc/pic32mx/4.8.3/../../../../pic32mx/lib\libpic32.a(vector49.o)
 .reginfo       0x00000000       0x18 c:/program files (x86)/microchip/xc32/v1.40/bin/bin/../../lib/gcc/pic32mx/4.8.3/../../../../pic32mx/lib\libpic32.a(vector49.o)
 .text          0x00000000        0x0 c:/program files (x86)/microchip/xc32/v1.40/bin/bin/../../lib/gcc/pic32mx/4.8.3/../../../../pic32mx/lib\libpic32.a(vector50.o)
 .data          0x00000000        0x0 c:/program files (x86)/microchip/xc32/v1.40/bin/bin/../../lib/gcc/pic32mx/4.8.3/../../../../pic32mx/lib\libpic32.a(vector50.o)
 .bss           0x00000000        0x0 c:/program files (x86)/microchip/xc32/v1.40/bin/bin/../../lib/gcc/pic32mx/4.8.3/../../../../pic32mx/lib\libpic32.a(vector50.o)
 .reginfo       0x00000000       0x18 c:/program files (x86)/microchip/xc32/v1.40/bin/bin/../../lib/gcc/pic32mx/4.8.3/../../../../pic32mx/lib\libpic32.a(vector50.o)
 .text          0x00000000        0x0 c:/program files (x86)/microchip/xc32/v1.40/bin/bin/../../lib/gcc/pic32mx/4.8.3/../../../../pic32mx/lib\libpic32.a(vector51.o)
 .data          0x00000000        0x0 c:/program files (x86)/microchip/xc32/v1.40/bin/bin/../../lib/gcc/pic32mx/4.8.3/../../../../pic32mx/lib\libpic32.a(vector51.o)
 .bss           0x00000000        0x0 c:/program files (x86)/microchip/xc32/v1.40/bin/bin/../../lib/gcc/pic32mx/4.8.3/../../../../pic32mx/lib\libpic32.a(vector51.o)
 .reginfo       0x00000000       0x18 c:/program files (x86)/microchip/xc32/v1.40/bin/bin/../../lib/gcc/pic32mx/4.8.3/../../../../pic32mx/lib\libpic32.a(vector51.o)
 .data          0x00000000        0x0 c:/program files (x86)/microchip/xc32/v1.40/bin/bin/../../lib/gcc/pic32mx/4.8.3/../../../../pic32mx/lib\libpic32.a(memcmp.o)
 .bss           0x00000000        0x0 c:/program files (x86)/microchip/xc32/v1.40/bin/bin/../../lib/gcc/pic32mx/4.8.3/../../../../pic32mx/lib\libpic32.a(memcmp.o)
 .reginfo       0x00000000       0x18 c:/program files (x86)/microchip/xc32/v1.40/bin/bin/../../lib/gcc/pic32mx/4.8.3/../../../../pic32mx/lib\libpic32.a(memcmp.o)
 .text          0x00000000        0x0 c:/program files (x86)/microchip/xc32/v1.40/bin/bin/../../lib/gcc/pic32mx/4.8.3/../../../../pic32mx/lib\libpic32.a(defaultinterrupt.o)
 .data          0x00000000        0x0 c:/program files (x86)/microchip/xc32/v1.40/bin/bin/../../lib/gcc/pic32mx/4.8.3/../../../../pic32mx/lib\libpic32.a(defaultinterrupt.o)
 .bss           0x00000000        0x0 c:/program files (x86)/microchip/xc32/v1.40/bin/bin/../../lib/gcc/pic32mx/4.8.3/../../../../pic32mx/lib\libpic32.a(defaultinterrupt.o)
 .reginfo       0x00000000       0x18 c:/program files (x86)/microchip/xc32/v1.40/bin/bin/../../lib/gcc/pic32mx/4.8.3/../../../../pic32mx/lib\libpic32.a(defaultinterrupt.o)
 .text          0x00000000        0x0 c:/program files (x86)/microchip/xc32/v1.40/bin/bin/../../lib/gcc/pic32mx/4.8.3/../../../../pic32mx/lib\libc.a(snprintf_fF.eo)
 .data          0x00000000        0x0 c:/program files (x86)/microchip/xc32/v1.40/bin/bin/../../lib/gcc/pic32mx/4.8.3/../../../../pic32mx/lib\libc.a(snprintf_fF.eo)
 .bss           0x00000000        0x0 c:/program files (x86)/microchip/xc32/v1.40/bin/bin/../../lib/gcc/pic32mx/4.8.3/../../../../pic32mx/lib\libc.a(snprintf_fF.eo)
 .reginfo       0x00000000       0x18 c:/program files (x86)/microchip/xc32/v1.40/bin/bin/../../lib/gcc/pic32mx/4.8.3/../../../../pic32mx/lib\libc.a(snprintf_fF.eo)
 .text._snprintf_fF
                0x00000000       0x28 c:/program files (x86)/microchip/xc32/v1.40/bin/bin/../../lib/gcc/pic32mx/4.8.3/../../../../pic32mx/lib\libc.a(snprintf_fF.eo)
 .text          0x00000000        0x0 c:/program files (x86)/microchip/xc32/v1.40/bin/bin/../../lib/gcc/pic32mx/4.8.3/../../../../pic32mx/lib\libc.a(sprintf_cdnopuxX.eo)
 .data          0x00000000        0x0 c:/program files (x86)/microchip/xc32/v1.40/bin/bin/../../lib/gcc/pic32mx/4.8.3/../../../../pic32mx/lib\libc.a(sprintf_cdnopuxX.eo)
 .bss           0x00000000        0x0 c:/program files (x86)/microchip/xc32/v1.40/bin/bin/../../lib/gcc/pic32mx/4.8.3/../../../../pic32mx/lib\libc.a(sprintf_cdnopuxX.eo)
 .reginfo       0x00000000       0x18 c:/program files (x86)/microchip/xc32/v1.40/bin/bin/../../lib/gcc/pic32mx/4.8.3/../../../../pic32mx/lib\libc.a(sprintf_cdnopuxX.eo)
 .text          0x00000000        0x0 c:/program files (x86)/microchip/xc32/v1.40/bin/bin/../../lib/gcc/pic32mx/4.8.3/../../../../pic32mx/lib\libc.a(vsnprintf_fF.eo)
 .data          0x00000000        0x0 c:/program files (x86)/microchip/xc32/v1.40/bin/bin/../../lib/gcc/pic32mx/4.8.3/../../../../pic32mx/lib\libc.a(vsnprintf_fF.eo)
 .bss           0x00000000        0x0 c:/program files (x86)/microchip/xc32/v1.40/bin/bin/../../lib/gcc/pic32mx/4.8.3/../../../../pic32mx/lib\libc.a(vsnprintf_fF.eo)
 .reginfo       0x00000000       0x18 c:/program files (x86)/microchip/xc32/v1.40/bin/bin/../../lib/gcc/pic32mx/4.8.3/../../../../pic32mx/lib\libc.a(vsnprintf_fF.eo)
 .text._vsnprintf_fF
                0x00000000       0x5c c:/program files (x86)/microchip/xc32/v1.40/bin/bin/../../lib/gcc/pic32mx/4.8.3/../../../../pic32mx/lib\libc.a(vsnprintf_fF.eo)
 .text          0x00000000        0x0 c:/program files (x86)/microchip/xc32/v1.40/bin/bin/../../lib/gcc/pic32mx/4.8.3/../../../../pic32mx/lib\libc.a(_fputc_simple.o)
 .data          0x00000000        0x0 c:/program files (x86)/microchip/xc32/v1.40/bin/bin/../../lib/gcc/pic32mx/4.8.3/../../../../pic32mx/lib\libc.a(_fputc_simple.o)
 .bss           0x00000000        0x0 c:/program files (x86)/microchip/xc32/v1.40/bin/bin/../../lib/gcc/pic32mx/4.8.3/../../../../pic32mx/lib\libc.a(_fputc_simple.o)
 .reginfo       0x00000000       0x18 c:/program files (x86)/microchip/xc32/v1.40/bin/bin/../../lib/gcc/pic32mx/4.8.3/../../../../pic32mx/lib\libc.a(_fputc_simple.o)
 .text          0x00000000        0x0 c:/program files (x86)/microchip/xc32/v1.40/bin/bin/../../lib/gcc/pic32mx/4.8.3/../../../../pic32mx/lib\libc.a(ctype.o)
 .data          0x00000000        0x0 c:/program files (x86)/microchip/xc32/v1.40/bin/bin/../../lib/gcc/pic32mx/4.8.3/../../../../pic32mx/lib\libc.a(ctype.o)
 .bss           0x00000000        0x0 c:/program files (x86)/microchip/xc32/v1.40/bin/bin/../../lib/gcc/pic32mx/4.8.3/../../../../pic32mx/lib\libc.a(ctype.o)
 .reginfo       0x00000000       0x18 c:/program files (x86)/microchip/xc32/v1.40/bin/bin/../../lib/gcc/pic32mx/4.8.3/../../../../pic32mx/lib\libc.a(ctype.o)
 .text          0x00000000        0x0 c:/program files (x86)/microchip/xc32/v1.40/bin/bin/../../lib/gcc/pic32mx/4.8.3/../../../../pic32mx/lib\libc.a(powersf.o)
 .data          0x00000000        0x0 c:/program files (x86)/microchip/xc32/v1.40/bin/bin/../../lib/gcc/pic32mx/4.8.3/../../../../pic32mx/lib\libc.a(powersf.o)
 .bss           0x00000000        0x0 c:/program files (x86)/microchip/xc32/v1.40/bin/bin/../../lib/gcc/pic32mx/4.8.3/../../../../pic32mx/lib\libc.a(powersf.o)
 .reginfo       0x00000000       0x18 c:/program files (x86)/microchip/xc32/v1.40/bin/bin/../../lib/gcc/pic32mx/4.8.3/../../../../pic32mx/lib\libc.a(powersf.o)
 .text          0x00000000        0x0 c:/program files (x86)/microchip/xc32/v1.40/bin/bin/../../lib/gcc/pic32mx/4.8.3/../../../../pic32mx/lib\libc.a(_iob.o)
 .data          0x00000000       0xa4 c:/program files (x86)/microchip/xc32/v1.40/bin/bin/../../lib/gcc/pic32mx/4.8.3/../../../../pic32mx/lib\libc.a(_iob.o)
 .reginfo       0x00000000       0x18 c:/program files (x86)/microchip/xc32/v1.40/bin/bin/../../lib/gcc/pic32mx/4.8.3/../../../../pic32mx/lib\libc.a(_iob.o)
 .text          0x00000000        0x0 c:/program files (x86)/microchip/xc32/v1.40/bin/bin/../../lib/gcc/pic32mx/4.8.3/../../../../pic32mx/lib\libc.a(_flsbuf_simple.o)
 .data          0x00000000        0x0 c:/program files (x86)/microchip/xc32/v1.40/bin/bin/../../lib/gcc/pic32mx/4.8.3/../../../../pic32mx/lib\libc.a(_flsbuf_simple.o)
 .bss           0x00000000        0x0 c:/program files (x86)/microchip/xc32/v1.40/bin/bin/../../lib/gcc/pic32mx/4.8.3/../../../../pic32mx/lib\libc.a(_flsbuf_simple.o)
 .reginfo       0x00000000       0x18 c:/program files (x86)/microchip/xc32/v1.40/bin/bin/../../lib/gcc/pic32mx/4.8.3/../../../../pic32mx/lib\libc.a(_flsbuf_simple.o)
 .text          0x00000000        0x0 c:/program files (x86)/microchip/xc32/v1.40/bin/bin/../../lib/gcc/pic32mx/4.8.3/../../../../pic32mx/lib\libpic32.a(write.o)
 .data          0x00000000        0x0 c:/program files (x86)/microchip/xc32/v1.40/bin/bin/../../lib/gcc/pic32mx/4.8.3/../../../../pic32mx/lib\libpic32.a(write.o)
 .bss           0x00000000        0x0 c:/program files (x86)/microchip/xc32/v1.40/bin/bin/../../lib/gcc/pic32mx/4.8.3/../../../../pic32mx/lib\libpic32.a(write.o)
 .reginfo       0x00000000       0x18 c:/program files (x86)/microchip/xc32/v1.40/bin/bin/../../lib/gcc/pic32mx/4.8.3/../../../../pic32mx/lib\libpic32.a(write.o)
 .text          0x00000000        0x0 c:/program files (x86)/microchip/xc32/v1.40/bin/bin/../../lib/gcc/pic32mx/4.8.3/../../../../pic32mx/lib\libpic32.a(_mon_putc.o)
 .data          0x00000000        0x0 c:/program files (x86)/microchip/xc32/v1.40/bin/bin/../../lib/gcc/pic32mx/4.8.3/../../../../pic32mx/lib\libpic32.a(_mon_putc.o)
 .bss           0x00000000        0x0 c:/program files (x86)/microchip/xc32/v1.40/bin/bin/../../lib/gcc/pic32mx/4.8.3/../../../../pic32mx/lib\libpic32.a(_mon_putc.o)
 .reginfo       0x00000000       0x18 c:/program files (x86)/microchip/xc32/v1.40/bin/bin/../../lib/gcc/pic32mx/4.8.3/../../../../pic32mx/lib\libpic32.a(_mon_putc.o)
 .text          0x00000000        0x0 c:/program files (x86)/microchip/xc32/v1.40/bin/bin/../../lib/gcc/pic32mx/4.8.3/../../../../pic32mx/lib\libpic32.a(xc32_uart.o)
 .data          0x00000000        0x0 c:/program files (x86)/microchip/xc32/v1.40/bin/bin/../../lib/gcc/pic32mx/4.8.3/../../../../pic32mx/lib\libpic32.a(xc32_uart.o)
 .bss           0x00000000        0x0 c:/program files (x86)/microchip/xc32/v1.40/bin/bin/../../lib/gcc/pic32mx/4.8.3/../../../../pic32mx/lib\libpic32.a(xc32_uart.o)
 .reginfo       0x00000000       0x18 c:/program files (x86)/microchip/xc32/v1.40/bin/bin/../../lib/gcc/pic32mx/4.8.3/../../../../pic32mx/lib\libpic32.a(xc32_uart.o)
 .text          0x00000000        0x0 c:/program files (x86)/microchip/xc32/v1.40/bin/bin/../../lib/gcc/pic32mx/4.8.3/../../../../pic32mx/lib\libm.a(fp32div.o)
 .data          0x00000000        0x0 c:/program files (x86)/microchip/xc32/v1.40/bin/bin/../../lib/gcc/pic32mx/4.8.3/../../../../pic32mx/lib\libm.a(fp32div.o)
 .bss           0x00000000        0x0 c:/program files (x86)/microchip/xc32/v1.40/bin/bin/../../lib/gcc/pic32mx/4.8.3/../../../../pic32mx/lib\libm.a(fp32div.o)
 .reginfo       0x00000000       0x18 c:/program files (x86)/microchip/xc32/v1.40/bin/bin/../../lib/gcc/pic32mx/4.8.3/../../../../pic32mx/lib\libm.a(fp32div.o)
 .text          0x00000000        0x0 c:/program files (x86)/microchip/xc32/v1.40/bin/bin/../../lib/gcc/pic32mx/4.8.3/../../../../pic32mx/lib\libm.a(fp32mul.o)
 .data          0x00000000        0x0 c:/program files (x86)/microchip/xc32/v1.40/bin/bin/../../lib/gcc/pic32mx/4.8.3/../../../../pic32mx/lib\libm.a(fp32mul.o)
 .bss           0x00000000        0x0 c:/program files (x86)/microchip/xc32/v1.40/bin/bin/../../lib/gcc/pic32mx/4.8.3/../../../../pic32mx/lib\libm.a(fp32mul.o)
 .reginfo       0x00000000       0x18 c:/program files (x86)/microchip/xc32/v1.40/bin/bin/../../lib/gcc/pic32mx/4.8.3/../../../../pic32mx/lib\libm.a(fp32mul.o)
 .text          0x00000000        0x0 c:/program files (x86)/microchip/xc32/v1.40/bin/bin/../../lib/gcc/pic32mx/4.8.3/../../../../pic32mx/lib\libm.a(fp32subadd.o)
 .data          0x00000000        0x0 c:/program files (x86)/microchip/xc32/v1.40/bin/bin/../../lib/gcc/pic32mx/4.8.3/../../../../pic32mx/lib\libm.a(fp32subadd.o)
 .bss           0x00000000        0x0 c:/program files (x86)/microchip/xc32/v1.40/bin/bin/../../lib/gcc/pic32mx/4.8.3/../../../../pic32mx/lib\libm.a(fp32subadd.o)
 .reginfo       0x00000000       0x18 c:/program files (x86)/microchip/xc32/v1.40/bin/bin/../../lib/gcc/pic32mx/4.8.3/../../../../pic32mx/lib\libm.a(fp32subadd.o)
 .text          0x00000000        0x0 c:/program files (x86)/microchip/xc32/v1.40/bin/bin/../../lib/gcc/pic32mx/4.8.3/../../../../pic32mx/lib\libm.a(fpcmp.o)
 .data          0x00000000        0x0 c:/program files (x86)/microchip/xc32/v1.40/bin/bin/../../lib/gcc/pic32mx/4.8.3/../../../../pic32mx/lib\libm.a(fpcmp.o)
 .bss           0x00000000        0x0 c:/program files (x86)/microchip/xc32/v1.40/bin/bin/../../lib/gcc/pic32mx/4.8.3/../../../../pic32mx/lib\libm.a(fpcmp.o)
 .reginfo       0x00000000       0x18 c:/program files (x86)/microchip/xc32/v1.40/bin/bin/../../lib/gcc/pic32mx/4.8.3/../../../../pic32mx/lib\libm.a(fpcmp.o)
 .text          0x00000000        0x0 c:/program files (x86)/microchip/xc32/v1.40/bin/bin/../../lib/gcc/pic32mx/4.8.3/../../../../pic32mx/lib\libm.a(fpfrexp.o)
 .data          0x00000000        0x0 c:/program files (x86)/microchip/xc32/v1.40/bin/bin/../../lib/gcc/pic32mx/4.8.3/../../../../pic32mx/lib\libm.a(fpfrexp.o)
 .bss           0x00000000        0x0 c:/program files (x86)/microchip/xc32/v1.40/bin/bin/../../lib/gcc/pic32mx/4.8.3/../../../../pic32mx/lib\libm.a(fpfrexp.o)
 .reginfo       0x00000000       0x18 c:/program files (x86)/microchip/xc32/v1.40/bin/bin/../../lib/gcc/pic32mx/4.8.3/../../../../pic32mx/lib\libm.a(fpfrexp.o)
 .text          0x00000000        0x0 c:/program files (x86)/microchip/xc32/v1.40/bin/bin/../../lib/gcc/pic32mx/4.8.3/../../../../pic32mx/lib\libm.a(fptoul.o)
 .data          0x00000000        0x0 c:/program files (x86)/microchip/xc32/v1.40/bin/bin/../../lib/gcc/pic32mx/4.8.3/../../../../pic32mx/lib\libm.a(fptoul.o)
 .bss           0x00000000        0x0 c:/program files (x86)/microchip/xc32/v1.40/bin/bin/../../lib/gcc/pic32mx/4.8.3/../../../../pic32mx/lib\libm.a(fptoul.o)
 .reginfo       0x00000000       0x18 c:/program files (x86)/microchip/xc32/v1.40/bin/bin/../../lib/gcc/pic32mx/4.8.3/../../../../pic32mx/lib\libm.a(fptoul.o)
 .text          0x00000000        0x0 c:/program files (x86)/microchip/xc32/v1.40/bin/bin/../../lib/gcc/pic32mx/4.8.3/../../../../pic32mx/lib\libe.a(_floatdisf.o)
 .data          0x00000000        0x0 c:/program files (x86)/microchip/xc32/v1.40/bin/bin/../../lib/gcc/pic32mx/4.8.3/../../../../pic32mx/lib\libe.a(_floatdisf.o)
 .bss           0x00000000        0x0 c:/program files (x86)/microchip/xc32/v1.40/bin/bin/../../lib/gcc/pic32mx/4.8.3/../../../../pic32mx/lib\libe.a(_floatdisf.o)
 .reginfo       0x00000000       0x18 c:/program files (x86)/microchip/xc32/v1.40/bin/bin/../../lib/gcc/pic32mx/4.8.3/../../../../pic32mx/lib\libe.a(_floatdisf.o)
 .data          0x00000000        0x0 c:/program files (x86)/microchip/xc32/v1.40/bin/bin/../../lib/gcc/pic32mx/4.8.3\libgcc.a(_udivdi3.o)
 .bss           0x00000000        0x0 c:/program files (x86)/microchip/xc32/v1.40/bin/bin/../../lib/gcc/pic32mx/4.8.3\libgcc.a(_udivdi3.o)
 .reginfo       0x00000000       0x18 c:/program files (x86)/microchip/xc32/v1.40/bin/bin/../../lib/gcc/pic32mx/4.8.3\libgcc.a(_udivdi3.o)
 .data          0x00000000        0x0 c:/program files (x86)/microchip/xc32/v1.40/bin/bin/../../lib/gcc/pic32mx/4.8.3\libgcc.a(_umoddi3.o)
 .bss           0x00000000        0x0 c:/program files (x86)/microchip/xc32/v1.40/bin/bin/../../lib/gcc/pic32mx/4.8.3\libgcc.a(_umoddi3.o)
 .reginfo       0x00000000       0x18 c:/program files (x86)/microchip/xc32/v1.40/bin/bin/../../lib/gcc/pic32mx/4.8.3\libgcc.a(_umoddi3.o)
 .data          0x00000000        0x0 c:/program files (x86)/microchip/xc32/v1.40/bin/bin/../../lib/gcc/pic32mx/4.8.3\libgcc.a(floatunsisf.o)
 .bss           0x00000000        0x0 c:/program files (x86)/microchip/xc32/v1.40/bin/bin/../../lib/gcc/pic32mx/4.8.3\libgcc.a(floatunsisf.o)
 .reginfo       0x00000000       0x18 c:/program files (x86)/microchip/xc32/v1.40/bin/bin/../../lib/gcc/pic32mx/4.8.3\libgcc.a(floatunsisf.o)
 .text          0x00000000        0x0 c:/program files (x86)/microchip/xc32/v1.40/bin/bin/../../lib/gcc/pic32mx/4.8.3/../../../../pic32mx/lib\libc.a(doprnt_cdfFnopuxX.eo)
 .data          0x00000000        0x0 c:/program files (x86)/microchip/xc32/v1.40/bin/bin/../../lib/gcc/pic32mx/4.8.3/../../../../pic32mx/lib\libc.a(doprnt_cdfFnopuxX.eo)
 .bss           0x00000000        0x0 c:/program files (x86)/microchip/xc32/v1.40/bin/bin/../../lib/gcc/pic32mx/4.8.3/../../../../pic32mx/lib\libc.a(doprnt_cdfFnopuxX.eo)
 .reginfo       0x00000000       0x18 c:/program files (x86)/microchip/xc32/v1.40/bin/bin/../../lib/gcc/pic32mx/4.8.3/../../../../pic32mx/lib\libc.a(doprnt_cdfFnopuxX.eo)
 .text          0x00000000        0x0 c:/program files (x86)/microchip/xc32/v1.40/bin/bin/../../lib/gcc/pic32mx/4.8.3/../../../../pic32mx/lib\libm.a(sitofp.o)
 .data          0x00000000        0x0 c:/program files (x86)/microchip/xc32/v1.40/bin/bin/../../lib/gcc/pic32mx/4.8.3/../../../../pic32mx/lib\libm.a(sitofp.o)
 .bss           0x00000000        0x0 c:/program files (x86)/microchip/xc32/v1.40/bin/bin/../../lib/gcc/pic32mx/4.8.3/../../../../pic32mx/lib\libm.a(sitofp.o)
 .reginfo       0x00000000       0x18 c:/program files (x86)/microchip/xc32/v1.40/bin/bin/../../lib/gcc/pic32mx/4.8.3/../../../../pic32mx/lib\libm.a(sitofp.o)

Memory Configuration

Name             Origin             Length             Attributes
kseg0_data_mem   0x80000000         0x00000200
kseg1_data_mem   0xa0000000         0x00020000         w !x
kseg0_boot_mem   0x9fc00490         0x00000970
kseg1_boot_mem   0xbfc00000         0x00000490
kseg0_program_mem 0x9d000000         0x00080000         xr
exception_mem    0x9fc01000         0x00001000
debug_exec_mem   0xbfc02000         0x00000ff0
config3          0xbfc02ff0         0x00000004
config2          0xbfc02ff4         0x00000004
config1          0xbfc02ff8         0x00000004
config0          0xbfc02ffc         0x00000004
sfrs             0xbf800000         0x00100000
configsfrs       0xbfc02ff0         0x00000010
*default*        0x00000000         0xffffffff

Linker script and memory map


reserve_data_0_kseg0
                0x80000000      0x200
                0x80000000        0x2 SHORT 0x0
                0x000001fd                . = 0x1fd
 *fill*         0x80000002      0x1fb 
                0x80000200                . = ALIGN (0x4)
 *fill*         0x800001fd        0x3 

reserve_data_0_kseg1
                0xa0000000      0x200
                0xa0000000        0x2 SHORT 0x0
                0x000001fd                . = 0x1fd
 *fill*         0xa0000002      0x1fb 
                0xa0000200                . = ALIGN (0x4)
 *fill*         0xa00001fd        0x3 

reserve_boot_0x1fc02000_kseg0
                0x9fc02000      0xff0
                0x9fc02000        0x2 SHORT 0x0
                0x00000500                . = 0x500
 *fill*         0x9fc02002      0x4fe 
                0x9fc02500                . = ALIGN (0x4)
                0x9fc02500        0x2 SHORT 0x0
                0x00000ff0                . = 0xff0
 *fill*         0x9fc02502      0xaee 
                0x9fc02ff0                . = ALIGN (0x4)

reserve_boot_0x1fc02000_kseg1
                0xbfc02000      0xff0
                0xbfc02000        0x2 SHORT 0x0
                0x00000500                . = 0x500
 *fill*         0xbfc02002      0x4fe 
                0xbfc02500                . = ALIGN (0x4)
                0xbfc02500        0x2 SHORT 0x0
                0x00000ff0                . = 0xff0
 *fill*         0xbfc02502      0xaee 
                0xbfc02ff0                . = ALIGN (0x4)
LOAD c:/program files (x86)/microchip/xc32/v1.40/bin/bin/../../lib/gcc/pic32mx/4.8.3/../../../../pic32mx/lib/./proc/32MX795F512L/crt0_mips32r2.o
LOAD c:/program files (x86)/microchip/xc32/v1.40/bin/bin/../../lib/gcc/pic32mx/4.8.3/../../../../pic32mx/lib\software-debug-break.o
LOAD build/configRover/debug/_ext/64793341/drv_oc_static.o
LOAD build/configRover/debug/_ext/1797679462/drv_tmr_static.o
LOAD build/configRover/debug/_ext/1532176561/drv_usart_static.o
LOAD build/configRover/debug/_ext/249367850/sys_clk_static.o
LOAD build/configRover/debug/_ext/1926720346/sys_ports_static.o
LOAD build/configRover/debug/_ext/369138285/system_init.o
LOAD build/configRover/debug/_ext/369138285/system_interrupt.o
LOAD build/configRover/debug/_ext/369138285/system_exceptions.o
LOAD build/configRover/debug/_ext/369138285/system_tasks.o
LOAD build/configRover/debug/_ext/369138285/system_interrupt_a.o
LOAD build/configRover/debug/_ext/369138285/rtos_hooks.o
LOAD build/configRover/debug/_ext/1360937237/communication.o
LOAD build/configRover/debug/_ext/1360937237/motor.o
LOAD build/configRover/debug/_ext/1360937237/main.o
LOAD build/configRover/debug/_ext/1879384925/osal_freertos.o
LOAD build/configRover/debug/_ext/351848739/sys_devcon.o
LOAD build/configRover/debug/_ext/351848739/sys_devcon_pic32mx.o
LOAD build/configRover/debug/_ext/474818461/sys_int_pic32.o
LOAD build/configRover/debug/_ext/1139950406/sys_ports.o
LOAD build/configRover/debug/_ext/1818123999/heap_1.o
LOAD build/configRover/debug/_ext/1062886388/port.o
LOAD build/configRover/debug/_ext/1062886388/port_asm.o
LOAD build/configRover/debug/_ext/184327166/croutine.o
LOAD build/configRover/debug/_ext/184327166/list.o
LOAD build/configRover/debug/_ext/184327166/queue.o
LOAD build/configRover/debug/_ext/184327166/tasks.o
LOAD build/configRover/debug/_ext/184327166/timers.o
LOAD build/configRover/debug/_ext/184327166/event_groups.o
LOAD build/configRover/debug/_ext/1536116519/debug.o
LOAD build/configRover/debug/_ext/1360937237/timer.o
LOAD ..\..\..\..\microchip\harmony\v1_05\bin\framework\peripheral\PIC32MX795F512L_peripherals.a
                0x00000001                __MPLAB_BUILD = 0x1
                0x00000001                __MPLAB_DEBUG = 0x1
                0x00000001                __DEBUG = 0x1
                0x00000001                __MPLAB_DEBUGGER_PK3 = 0x1
                0x00000000                _min_heap_size = 0x0
LOAD c:/program files (x86)/microchip/xc32/v1.40/bin/bin/../../lib/gcc/pic32mx/4.8.3/../../../../pic32mx/lib/./proc/32MX795F512L\default_isr_vectors.o
LOAD c:/program files (x86)/microchip/xc32/v1.40/bin/bin/../../lib/gcc/pic32mx/4.8.3/../../../../pic32mx/lib\pic32_software_reset.o
                0x00000400                PROVIDE (_min_stack_size, 0x400)
LOAD c:/program files (x86)/microchip/xc32/v1.40/bin/bin/../../lib/gcc/pic32mx/4.8.3/../../../../pic32mx/lib/./proc/32MX795F512L\processor.o
START GROUP
LOAD libmchp_peripheral.a
END GROUP
START GROUP
LOAD libmchp_peripheral_32MX795F512L.a
END GROUP
                0x00000001                PROVIDE (_vector_spacing, 0x1)
                0x9fc01000                _ebase_address = 0x9fc01000
                0xbfc00000                _RESET_ADDR = 0xbfc00000
                0xbfc00380                _BEV_EXCPT_ADDR = 0xbfc00380
                0xbfc00480                _DBG_EXCPT_ADDR = 0xbfc00480
                0xbfc02000                _DBG_CODE_ADDR = 0xbfc02000
                0x00000ff0                _DBG_CODE_SIZE = 0xff0
                0x9fc01180                _GEN_EXCPT_ADDR = (_ebase_address + 0x180)

.config_BFC02FF0
                0xbfc02ff0        0x4
 *(.config_BFC02FF0)
 .config_BFC02FF0
                0xbfc02ff0        0x4 build/configRover/debug/_ext/369138285/system_init.o

.config_BFC02FF4
                0xbfc02ff4        0x4
 *(.config_BFC02FF4)
 .config_BFC02FF4
                0xbfc02ff4        0x4 build/configRover/debug/_ext/369138285/system_init.o

.config_BFC02FF8
                0xbfc02ff8        0x4
 *(.config_BFC02FF8)
 .config_BFC02FF8
                0xbfc02ff8        0x4 build/configRover/debug/_ext/369138285/system_init.o

.config_BFC02FFC
                0xbfc02ffc        0x4
 *(.config_BFC02FFC)
 .config_BFC02FFC
                0xbfc02ffc        0x4 build/configRover/debug/_ext/369138285/system_init.o
                0xbfc02000                PROVIDE (_DBG_CODE_ADDR, 0xbfc02000)
                0x00000ff0                PROVIDE (_DBG_CODE_SIZE, 0xff0)

.reset          0xbfc00000      0x1f4
 *(.reset)
 .reset         0xbfc00000        0x8 c:/program files (x86)/microchip/xc32/v1.40/bin/bin/../../lib/gcc/pic32mx/4.8.3/../../../../pic32mx/lib/./proc/32MX795F512L/crt0_mips32r2.o
                0xbfc00000                _reset
 *(.reset.startup)
 .reset.startup
                0xbfc00008      0x1ec c:/program files (x86)/microchip/xc32/v1.40/bin/bin/../../lib/gcc/pic32mx/4.8.3/../../../../pic32mx/lib/./proc/32MX795F512L/crt0_mips32r2.o

.bev_excpt      0xbfc00380       0x10
 *(.bev_handler)
 .bev_handler   0xbfc00380       0x10 c:/program files (x86)/microchip/xc32/v1.40/bin/bin/../../lib/gcc/pic32mx/4.8.3/../../../../pic32mx/lib/./proc/32MX795F512L/crt0_mips32r2.o

.dbg_excpt      0xbfc00480        0x0
                0xbfc00480                . = (. + DEFINED (_DEBUGGER)?0x8:0x0)

.dbg_code       0xbfc02000        0x0
                0xbfc02000                . = (. + DEFINED (_DEBUGGER)?_DBG_CODE_SIZE:0x0)

.app_excpt      0x9fc01180       0x10
 *(.gen_handler)
 .gen_handler   0x9fc01180       0x10 c:/program files (x86)/microchip/xc32/v1.40/bin/bin/../../lib/gcc/pic32mx/4.8.3/../../../../pic32mx/lib/./proc/32MX795F512L/crt0_mips32r2.o

.vector_0       0x9fc01200        0x8
 *(.vector_0)
 .vector_0      0x9fc01200        0x8 c:/program files (x86)/microchip/xc32/v1.40/bin/bin/../../lib/gcc/pic32mx/4.8.3/../../../../pic32mx/lib\libpic32.a(vector0.o)
                0x9fc01200                __vector_dispatch_0
                0x00000001                ASSERT (((_vector_spacing == 0x0) || (SIZEOF (.vector_0) <= (_vector_spacing << 0x5))), function at exception vector 0 too large)

.vector_1       0x9fc01220        0x8
 *(.vector_1)
 .vector_1      0x9fc01220        0x8 build/configRover/debug/_ext/1062886388/port.o
                0x9fc01220                __vector_dispatch_1
                0x00000001                ASSERT (((_vector_spacing == 0x0) || (SIZEOF (.vector_1) <= (_vector_spacing << 0x5))), function at exception vector 1 too large)

.vector_2       0x9fc01240        0x8
 *(.vector_2)
 .vector_2      0x9fc01240        0x8 c:/program files (x86)/microchip/xc32/v1.40/bin/bin/../../lib/gcc/pic32mx/4.8.3/../../../../pic32mx/lib\libpic32.a(vector2.o)
                0x9fc01240                __vector_dispatch_2
                0x00000001                ASSERT (((_vector_spacing == 0x0) || (SIZEOF (.vector_2) <= (_vector_spacing << 0x5))), function at exception vector 2 too large)

.vector_3       0x9fc01260        0x8
 *(.vector_3)
 .vector_3      0x9fc01260        0x8 c:/program files (x86)/microchip/xc32/v1.40/bin/bin/../../lib/gcc/pic32mx/4.8.3/../../../../pic32mx/lib\libpic32.a(vector3.o)
                0x9fc01260                __vector_dispatch_3
                0x00000001                ASSERT (((_vector_spacing == 0x0) || (SIZEOF (.vector_3) <= (_vector_spacing << 0x5))), function at exception vector 3 too large)

.vector_4       0x9fc01280        0x8
 *(.vector_4)
 .vector_4      0x9fc01280        0x8 build/configRover/debug/_ext/1062886388/port.o
                0x9fc01280                __vector_dispatch_4
                0x00000001                ASSERT (((_vector_spacing == 0x0) || (SIZEOF (.vector_4) <= (_vector_spacing << 0x5))), function at exception vector 4 too large)

.vector_5       0x9fc012a0        0x8
 *(.vector_5)
 .vector_5      0x9fc012a0        0x8 c:/program files (x86)/microchip/xc32/v1.40/bin/bin/../../lib/gcc/pic32mx/4.8.3/../../../../pic32mx/lib\libpic32.a(vector5.o)
                0x9fc012a0                __vector_dispatch_5
                0x00000001                ASSERT (((_vector_spacing == 0x0) || (SIZEOF (.vector_5) <= (_vector_spacing << 0x5))), function at exception vector 5 too large)

.vector_6       0x9fc012c0        0x8
 *(.vector_6)
 .vector_6      0x9fc012c0        0x8 c:/program files (x86)/microchip/xc32/v1.40/bin/bin/../../lib/gcc/pic32mx/4.8.3/../../../../pic32mx/lib\libpic32.a(vector6.o)
                0x9fc012c0                __vector_dispatch_6
                0x00000001                ASSERT (((_vector_spacing == 0x0) || (SIZEOF (.vector_6) <= (_vector_spacing << 0x5))), function at exception vector 6 too large)

.vector_7       0x9fc012e0       0x10
 *(.vector_7)
 .vector_7      0x9fc012e0       0x10 build/configRover/debug/_ext/369138285/system_interrupt_a.o
                0x9fc012e0                __vector_dispatch_7
                0x00000001                ASSERT (((_vector_spacing == 0x0) || (SIZEOF (.vector_7) <= (_vector_spacing << 0x5))), function at exception vector 7 too large)

.vector_8       0x9fc01300       0x10
 *(.vector_8)
 .vector_8      0x9fc01300       0x10 build/configRover/debug/_ext/369138285/system_interrupt_a.o
                0x9fc01300                __vector_dispatch_8
                0x00000001                ASSERT (((_vector_spacing == 0x0) || (SIZEOF (.vector_8) <= (_vector_spacing << 0x5))), function at exception vector 8 too large)

.vector_9       0x9fc01320        0x8
 *(.vector_9)
 .vector_9      0x9fc01320        0x8 c:/program files (x86)/microchip/xc32/v1.40/bin/bin/../../lib/gcc/pic32mx/4.8.3/../../../../pic32mx/lib\libpic32.a(vector9.o)
                0x9fc01320                __vector_dispatch_9
                0x00000001                ASSERT (((_vector_spacing == 0x0) || (SIZEOF (.vector_9) <= (_vector_spacing << 0x5))), function at exception vector 9 too large)

.vector_10      0x9fc01340        0x8
 *(.vector_10)
 .vector_10     0x9fc01340        0x8 c:/program files (x86)/microchip/xc32/v1.40/bin/bin/../../lib/gcc/pic32mx/4.8.3/../../../../pic32mx/lib\libpic32.a(vector10.o)
                0x9fc01340                __vector_dispatch_10
                0x00000001                ASSERT (((_vector_spacing == 0x0) || (SIZEOF (.vector_10) <= (_vector_spacing << 0x5))), function at exception vector 10 too large)

.vector_11      0x9fc01360       0x10
 *(.vector_11)
 .vector_11     0x9fc01360       0x10 build/configRover/debug/_ext/369138285/system_interrupt_a.o
                0x9fc01360                __vector_dispatch_11
                0x00000001                ASSERT (((_vector_spacing == 0x0) || (SIZEOF (.vector_11) <= (_vector_spacing << 0x5))), function at exception vector 11 too large)

.vector_12      0x9fc01380       0x10
 *(.vector_12)
 .vector_12     0x9fc01380       0x10 build/configRover/debug/_ext/369138285/system_interrupt_a.o
                0x9fc01380                __vector_dispatch_12
                0x00000001                ASSERT (((_vector_spacing == 0x0) || (SIZEOF (.vector_12) <= (_vector_spacing << 0x5))), function at exception vector 12 too large)

.vector_13      0x9fc013a0        0x8
 *(.vector_13)
 .vector_13     0x9fc013a0        0x8 c:/program files (x86)/microchip/xc32/v1.40/bin/bin/../../lib/gcc/pic32mx/4.8.3/../../../../pic32mx/lib\libpic32.a(vector13.o)
                0x9fc013a0                __vector_dispatch_13
                0x00000001                ASSERT (((_vector_spacing == 0x0) || (SIZEOF (.vector_13) <= (_vector_spacing << 0x5))), function at exception vector 13 too large)

.vector_14      0x9fc013c0        0x8
 *(.vector_14)
 .vector_14     0x9fc013c0        0x8 c:/program files (x86)/microchip/xc32/v1.40/bin/bin/../../lib/gcc/pic32mx/4.8.3/../../../../pic32mx/lib\libpic32.a(vector14.o)
                0x9fc013c0                __vector_dispatch_14
                0x00000001                ASSERT (((_vector_spacing == 0x0) || (SIZEOF (.vector_14) <= (_vector_spacing << 0x5))), function at exception vector 14 too large)

.vector_15      0x9fc013e0        0x8
 *(.vector_15)
 .vector_15     0x9fc013e0        0x8 c:/program files (x86)/microchip/xc32/v1.40/bin/bin/../../lib/gcc/pic32mx/4.8.3/../../../../pic32mx/lib\libpic32.a(vector15.o)
                0x9fc013e0                __vector_dispatch_15
                0x00000001                ASSERT (((_vector_spacing == 0x0) || (SIZEOF (.vector_15) <= (_vector_spacing << 0x5))), function at exception vector 15 too large)

.vector_16      0x9fc01400       0x10
 *(.vector_16)
 .vector_16     0x9fc01400       0x10 build/configRover/debug/_ext/369138285/system_interrupt_a.o
                0x9fc01400                __vector_dispatch_16
                0x00000001                ASSERT (((_vector_spacing == 0x0) || (SIZEOF (.vector_16) <= (_vector_spacing << 0x5))), function at exception vector 16 too large)

.vector_17      0x9fc01420        0x8
 *(.vector_17)
 .vector_17     0x9fc01420        0x8 c:/program files (x86)/microchip/xc32/v1.40/bin/bin/../../lib/gcc/pic32mx/4.8.3/../../../../pic32mx/lib\libpic32.a(vector17.o)
                0x9fc01420                __vector_dispatch_17
                0x00000001                ASSERT (((_vector_spacing == 0x0) || (SIZEOF (.vector_17) <= (_vector_spacing << 0x5))), function at exception vector 17 too large)

.vector_18      0x9fc01440        0x8
 *(.vector_18)
 .vector_18     0x9fc01440        0x8 c:/program files (x86)/microchip/xc32/v1.40/bin/bin/../../lib/gcc/pic32mx/4.8.3/../../../../pic32mx/lib\libpic32.a(vector18.o)
                0x9fc01440                __vector_dispatch_18
                0x00000001                ASSERT (((_vector_spacing == 0x0) || (SIZEOF (.vector_18) <= (_vector_spacing << 0x5))), function at exception vector 18 too large)

.vector_19      0x9fc01460        0x8
 *(.vector_19)
 .vector_19     0x9fc01460        0x8 c:/program files (x86)/microchip/xc32/v1.40/bin/bin/../../lib/gcc/pic32mx/4.8.3/../../../../pic32mx/lib\libpic32.a(vector19.o)
                0x9fc01460                __vector_dispatch_19
                0x00000001                ASSERT (((_vector_spacing == 0x0) || (SIZEOF (.vector_19) <= (_vector_spacing << 0x5))), function at exception vector 19 too large)

.vector_20      0x9fc01480       0x10
 *(.vector_20)
 .vector_20     0x9fc01480       0x10 build/configRover/debug/_ext/369138285/system_interrupt_a.o
                0x9fc01480                __vector_dispatch_20
                0x00000001                ASSERT (((_vector_spacing == 0x0) || (SIZEOF (.vector_20) <= (_vector_spacing << 0x5))), function at exception vector 20 too large)

.vector_21      0x9fc014a0        0x8
 *(.vector_21)
 .vector_21     0x9fc014a0        0x8 c:/program files (x86)/microchip/xc32/v1.40/bin/bin/../../lib/gcc/pic32mx/4.8.3/../../../../pic32mx/lib\libpic32.a(vector21.o)
                0x9fc014a0                __vector_dispatch_21
                0x00000001                ASSERT (((_vector_spacing == 0x0) || (SIZEOF (.vector_21) <= (_vector_spacing << 0x5))), function at exception vector 21 too large)

.vector_22      0x9fc014c0        0x8
 *(.vector_22)
 .vector_22     0x9fc014c0        0x8 c:/program files (x86)/microchip/xc32/v1.40/bin/bin/../../lib/gcc/pic32mx/4.8.3/../../../../pic32mx/lib\libpic32.a(vector22.o)
                0x9fc014c0                __vector_dispatch_22
                0x00000001                ASSERT (((_vector_spacing == 0x0) || (SIZEOF (.vector_22) <= (_vector_spacing << 0x5))), function at exception vector 22 too large)

.vector_23      0x9fc014e0        0x8
 *(.vector_23)
 .vector_23     0x9fc014e0        0x8 c:/program files (x86)/microchip/xc32/v1.40/bin/bin/../../lib/gcc/pic32mx/4.8.3/../../../../pic32mx/lib\libpic32.a(vector23.o)
                0x9fc014e0                __vector_dispatch_23
                0x00000001                ASSERT (((_vector_spacing == 0x0) || (SIZEOF (.vector_23) <= (_vector_spacing << 0x5))), function at exception vector 23 too large)

.vector_24      0x9fc01500       0x10
 *(.vector_24)
 .vector_24     0x9fc01500       0x10 build/configRover/debug/_ext/369138285/system_interrupt_a.o
                0x9fc01500                __vector_dispatch_24
                0x00000001                ASSERT (((_vector_spacing == 0x0) || (SIZEOF (.vector_24) <= (_vector_spacing << 0x5))), function at exception vector 24 too large)

.vector_25      0x9fc01520        0x8
 *(.vector_25)
 .vector_25     0x9fc01520        0x8 c:/program files (x86)/microchip/xc32/v1.40/bin/bin/../../lib/gcc/pic32mx/4.8.3/../../../../pic32mx/lib\libpic32.a(vector25.o)
                0x9fc01520                __vector_dispatch_25
                0x00000001                ASSERT (((_vector_spacing == 0x0) || (SIZEOF (.vector_25) <= (_vector_spacing << 0x5))), function at exception vector 25 too large)

.vector_26      0x9fc01540        0x8
 *(.vector_26)
 .vector_26     0x9fc01540        0x8 c:/program files (x86)/microchip/xc32/v1.40/bin/bin/../../lib/gcc/pic32mx/4.8.3/../../../../pic32mx/lib\libpic32.a(vector26.o)
                0x9fc01540                __vector_dispatch_26
                0x00000001                ASSERT (((_vector_spacing == 0x0) || (SIZEOF (.vector_26) <= (_vector_spacing << 0x5))), function at exception vector 26 too large)

.vector_27      0x9fc01560        0x8
 *(.vector_27)
 .vector_27     0x9fc01560        0x8 c:/program files (x86)/microchip/xc32/v1.40/bin/bin/../../lib/gcc/pic32mx/4.8.3/../../../../pic32mx/lib\libpic32.a(vector27.o)
                0x9fc01560                __vector_dispatch_27
                0x00000001                ASSERT (((_vector_spacing == 0x0) || (SIZEOF (.vector_27) <= (_vector_spacing << 0x5))), function at exception vector 27 too large)

.vector_28      0x9fc01580        0x8
 *(.vector_28)
 .vector_28     0x9fc01580        0x8 c:/program files (x86)/microchip/xc32/v1.40/bin/bin/../../lib/gcc/pic32mx/4.8.3/../../../../pic32mx/lib\libpic32.a(vector28.o)
                0x9fc01580                __vector_dispatch_28
                0x00000001                ASSERT (((_vector_spacing == 0x0) || (SIZEOF (.vector_28) <= (_vector_spacing << 0x5))), function at exception vector 28 too large)

.vector_29      0x9fc015a0        0x8
 *(.vector_29)
 .vector_29     0x9fc015a0        0x8 c:/program files (x86)/microchip/xc32/v1.40/bin/bin/../../lib/gcc/pic32mx/4.8.3/../../../../pic32mx/lib\libpic32.a(vector29.o)
                0x9fc015a0                __vector_dispatch_29
                0x00000001                ASSERT (((_vector_spacing == 0x0) || (SIZEOF (.vector_29) <= (_vector_spacing << 0x5))), function at exception vector 29 too large)

.vector_30      0x9fc015c0        0x8
 *(.vector_30)
 .vector_30     0x9fc015c0        0x8 c:/program files (x86)/microchip/xc32/v1.40/bin/bin/../../lib/gcc/pic32mx/4.8.3/../../../../pic32mx/lib\libpic32.a(vector30.o)
                0x9fc015c0                __vector_dispatch_30
                0x00000001                ASSERT (((_vector_spacing == 0x0) || (SIZEOF (.vector_30) <= (_vector_spacing << 0x5))), function at exception vector 30 too large)

.vector_31      0x9fc015e0        0x8
 *(.vector_31)
 .vector_31     0x9fc015e0        0x8 c:/program files (x86)/microchip/xc32/v1.40/bin/bin/../../lib/gcc/pic32mx/4.8.3/../../../../pic32mx/lib\libpic32.a(vector31.o)
                0x9fc015e0                __vector_dispatch_31
                0x00000001                ASSERT (((_vector_spacing == 0x0) || (SIZEOF (.vector_31) <= (_vector_spacing << 0x5))), function at exception vector 31 too large)

.vector_32      0x9fc01600       0x10
 *(.vector_32)
 .vector_32     0x9fc01600       0x10 build/configRover/debug/_ext/369138285/system_interrupt_a.o
                0x9fc01600                __vector_dispatch_32
                0x00000001                ASSERT (((_vector_spacing == 0x0) || (SIZEOF (.vector_32) <= (_vector_spacing << 0x5))), function at exception vector 32 too large)

.vector_33      0x9fc01620        0x8
 *(.vector_33)
 .vector_33     0x9fc01620        0x8 c:/program files (x86)/microchip/xc32/v1.40/bin/bin/../../lib/gcc/pic32mx/4.8.3/../../../../pic32mx/lib\libpic32.a(vector33.o)
                0x9fc01620                __vector_dispatch_33
                0x00000001                ASSERT (((_vector_spacing == 0x0) || (SIZEOF (.vector_33) <= (_vector_spacing << 0x5))), function at exception vector 33 too large)

.vector_34      0x9fc01640        0x8
 *(.vector_34)
 .vector_34     0x9fc01640        0x8 c:/program files (x86)/microchip/xc32/v1.40/bin/bin/../../lib/gcc/pic32mx/4.8.3/../../../../pic32mx/lib\libpic32.a(vector34.o)
                0x9fc01640                __vector_dispatch_34
                0x00000001                ASSERT (((_vector_spacing == 0x0) || (SIZEOF (.vector_34) <= (_vector_spacing << 0x5))), function at exception vector 34 too large)

.vector_35      0x9fc01660        0x8
 *(.vector_35)
 .vector_35     0x9fc01660        0x8 c:/program files (x86)/microchip/xc32/v1.40/bin/bin/../../lib/gcc/pic32mx/4.8.3/../../../../pic32mx/lib\libpic32.a(vector35.o)
                0x9fc01660                __vector_dispatch_35
                0x00000001                ASSERT (((_vector_spacing == 0x0) || (SIZEOF (.vector_35) <= (_vector_spacing << 0x5))), function at exception vector 35 too large)

.vector_36      0x9fc01680        0x8
 *(.vector_36)
 .vector_36     0x9fc01680        0x8 c:/program files (x86)/microchip/xc32/v1.40/bin/bin/../../lib/gcc/pic32mx/4.8.3/../../../../pic32mx/lib\libpic32.a(vector36.o)
                0x9fc01680                __vector_dispatch_36
                0x00000001                ASSERT (((_vector_spacing == 0x0) || (SIZEOF (.vector_36) <= (_vector_spacing << 0x5))), function at exception vector 36 too large)

.vector_37      0x9fc016a0        0x8
 *(.vector_37)
 .vector_37     0x9fc016a0        0x8 c:/program files (x86)/microchip/xc32/v1.40/bin/bin/../../lib/gcc/pic32mx/4.8.3/../../../../pic32mx/lib\libpic32.a(vector37.o)
                0x9fc016a0                __vector_dispatch_37
                0x00000001                ASSERT (((_vector_spacing == 0x0) || (SIZEOF (.vector_37) <= (_vector_spacing << 0x5))), function at exception vector 37 too large)

.vector_38      0x9fc016c0        0x8
 *(.vector_38)
 .vector_38     0x9fc016c0        0x8 c:/program files (x86)/microchip/xc32/v1.40/bin/bin/../../lib/gcc/pic32mx/4.8.3/../../../../pic32mx/lib\libpic32.a(vector38.o)
                0x9fc016c0                __vector_dispatch_38
                0x00000001                ASSERT (((_vector_spacing == 0x0) || (SIZEOF (.vector_38) <= (_vector_spacing << 0x5))), function at exception vector 38 too large)

.vector_39      0x9fc016e0        0x8
 *(.vector_39)
 .vector_39     0x9fc016e0        0x8 c:/program files (x86)/microchip/xc32/v1.40/bin/bin/../../lib/gcc/pic32mx/4.8.3/../../../../pic32mx/lib\libpic32.a(vector39.o)
                0x9fc016e0                __vector_dispatch_39
                0x00000001                ASSERT (((_vector_spacing == 0x0) || (SIZEOF (.vector_39) <= (_vector_spacing << 0x5))), function at exception vector 39 too large)

.vector_40      0x9fc01700        0x8
 *(.vector_40)
 .vector_40     0x9fc01700        0x8 c:/program files (x86)/microchip/xc32/v1.40/bin/bin/../../lib/gcc/pic32mx/4.8.3/../../../../pic32mx/lib\libpic32.a(vector40.o)
                0x9fc01700                __vector_dispatch_40
                0x00000001                ASSERT (((_vector_spacing == 0x0) || (SIZEOF (.vector_40) <= (_vector_spacing << 0x5))), function at exception vector 40 too large)

.vector_41      0x9fc01720        0x8
 *(.vector_41)
 .vector_41     0x9fc01720        0x8 c:/program files (x86)/microchip/xc32/v1.40/bin/bin/../../lib/gcc/pic32mx/4.8.3/../../../../pic32mx/lib\libpic32.a(vector41.o)
                0x9fc01720                __vector_dispatch_41
                0x00000001                ASSERT (((_vector_spacing == 0x0) || (SIZEOF (.vector_41) <= (_vector_spacing << 0x5))), function at exception vector 41 too large)

.vector_42      0x9fc01740        0x8
 *(.vector_42)
 .vector_42     0x9fc01740        0x8 c:/program files (x86)/microchip/xc32/v1.40/bin/bin/../../lib/gcc/pic32mx/4.8.3/../../../../pic32mx/lib\libpic32.a(vector42.o)
                0x9fc01740                __vector_dispatch_42
                0x00000001                ASSERT (((_vector_spacing == 0x0) || (SIZEOF (.vector_42) <= (_vector_spacing << 0x5))), function at exception vector 42 too large)

.vector_43      0x9fc01760        0x8
 *(.vector_43)
 .vector_43     0x9fc01760        0x8 c:/program files (x86)/microchip/xc32/v1.40/bin/bin/../../lib/gcc/pic32mx/4.8.3/../../../../pic32mx/lib\libpic32.a(vector43.o)
                0x9fc01760                __vector_dispatch_43
                0x00000001                ASSERT (((_vector_spacing == 0x0) || (SIZEOF (.vector_43) <= (_vector_spacing << 0x5))), function at exception vector 43 too large)

.vector_44      0x9fc01780        0x8
 *(.vector_44)
 .vector_44     0x9fc01780        0x8 c:/program files (x86)/microchip/xc32/v1.40/bin/bin/../../lib/gcc/pic32mx/4.8.3/../../../../pic32mx/lib\libpic32.a(vector44.o)
                0x9fc01780                __vector_dispatch_44
                0x00000001                ASSERT (((_vector_spacing == 0x0) || (SIZEOF (.vector_44) <= (_vector_spacing << 0x5))), function at exception vector 44 too large)

.vector_45      0x9fc017a0        0x8
 *(.vector_45)
 .vector_45     0x9fc017a0        0x8 c:/program files (x86)/microchip/xc32/v1.40/bin/bin/../../lib/gcc/pic32mx/4.8.3/../../../../pic32mx/lib\libpic32.a(vector45.o)
                0x9fc017a0                __vector_dispatch_45
                0x00000001                ASSERT (((_vector_spacing == 0x0) || (SIZEOF (.vector_45) <= (_vector_spacing << 0x5))), function at exception vector 45 too large)

.vector_46      0x9fc017c0        0x8
 *(.vector_46)
 .vector_46     0x9fc017c0        0x8 c:/program files (x86)/microchip/xc32/v1.40/bin/bin/../../lib/gcc/pic32mx/4.8.3/../../../../pic32mx/lib\libpic32.a(vector46.o)
                0x9fc017c0                __vector_dispatch_46
                0x00000001                ASSERT (((_vector_spacing == 0x0) || (SIZEOF (.vector_46) <= (_vector_spacing << 0x5))), function at exception vector 46 too large)

.vector_47      0x9fc017e0        0x8
 *(.vector_47)
 .vector_47     0x9fc017e0        0x8 c:/program files (x86)/microchip/xc32/v1.40/bin/bin/../../lib/gcc/pic32mx/4.8.3/../../../../pic32mx/lib\libpic32.a(vector47.o)
                0x9fc017e0                __vector_dispatch_47
                0x00000001                ASSERT (((_vector_spacing == 0x0) || (SIZEOF (.vector_47) <= (_vector_spacing << 0x5))), function at exception vector 47 too large)

.vector_48      0x9fc01800        0x8
 *(.vector_48)
 .vector_48     0x9fc01800        0x8 c:/program files (x86)/microchip/xc32/v1.40/bin/bin/../../lib/gcc/pic32mx/4.8.3/../../../../pic32mx/lib\libpic32.a(vector48.o)
                0x9fc01800                __vector_dispatch_48
                0x00000001                ASSERT (((_vector_spacing == 0x0) || (SIZEOF (.vector_48) <= (_vector_spacing << 0x5))), function at exception vector 48 too large)

.vector_49      0x9fc01820        0x8
 *(.vector_49)
 .vector_49     0x9fc01820        0x8 c:/program files (x86)/microchip/xc32/v1.40/bin/bin/../../lib/gcc/pic32mx/4.8.3/../../../../pic32mx/lib\libpic32.a(vector49.o)
                0x9fc01820                __vector_dispatch_49
                0x00000001                ASSERT (((_vector_spacing == 0x0) || (SIZEOF (.vector_49) <= (_vector_spacing << 0x5))), function at exception vector 49 too large)

.vector_50      0x9fc01840        0x8
 *(.vector_50)
 .vector_50     0x9fc01840        0x8 c:/program files (x86)/microchip/xc32/v1.40/bin/bin/../../lib/gcc/pic32mx/4.8.3/../../../../pic32mx/lib\libpic32.a(vector50.o)
                0x9fc01840                __vector_dispatch_50
                0x00000001                ASSERT (((_vector_spacing == 0x0) || (SIZEOF (.vector_50) <= (_vector_spacing << 0x5))), function at exception vector 50 too large)

.vector_51      0x9fc01860        0x8
 *(.vector_51)
 .vector_51     0x9fc01860        0x8 c:/program files (x86)/microchip/xc32/v1.40/bin/bin/../../lib/gcc/pic32mx/4.8.3/../../../../pic32mx/lib\libpic32.a(vector51.o)
                0x9fc01860                __vector_dispatch_51
                0x00000001                ASSERT (((_vector_spacing == 0x0) || (SIZEOF (.vector_51) <= (_vector_spacing << 0x5))), function at exception vector 51 too large)

.vector_52      0x9fc01880        0x0
 *(.vector_52)
                0x00000001                ASSERT (((_vector_spacing == 0x0) || (SIZEOF (.vector_52) <= (_vector_spacing << 0x5))), function at exception vector 52 too large)

.vector_53      0x9fc018a0        0x0
 *(.vector_53)
                0x00000001                ASSERT (((_vector_spacing == 0x0) || (SIZEOF (.vector_53) <= (_vector_spacing << 0x5))), function at exception vector 53 too large)

.vector_54      0x9fc018c0        0x0
 *(.vector_54)
                0x00000001                ASSERT (((_vector_spacing == 0x0) || (SIZEOF (.vector_54) <= (_vector_spacing << 0x5))), function at exception vector 54 too large)

.vector_55      0x9fc018e0        0x0
 *(.vector_55)
                0x00000001                ASSERT (((_vector_spacing == 0x0) || (SIZEOF (.vector_55) <= (_vector_spacing << 0x5))), function at exception vector 55 too large)

.vector_56      0x9fc01900        0x0
 *(.vector_56)
                0x00000001                ASSERT (((_vector_spacing == 0x0) || (SIZEOF (.vector_56) <= (_vector_spacing << 0x5))), function at exception vector 56 too large)

.vector_57      0x9fc01920        0x0
 *(.vector_57)
                0x00000001                ASSERT (((_vector_spacing == 0x0) || (SIZEOF (.vector_57) <= (_vector_spacing << 0x5))), function at exception vector 57 too large)

.vector_58      0x9fc01940        0x0
 *(.vector_58)
                0x00000001                ASSERT (((_vector_spacing == 0x0) || (SIZEOF (.vector_58) <= (_vector_spacing << 0x5))), function at exception vector 58 too large)

.vector_59      0x9fc01960        0x0
 *(.vector_59)
                0x00000001                ASSERT (((_vector_spacing == 0x0) || (SIZEOF (.vector_59) <= (_vector_spacing << 0x5))), function at exception vector 59 too large)

.vector_60      0x9fc01980        0x0
 *(.vector_60)
                0x00000001                ASSERT (((_vector_spacing == 0x0) || (SIZEOF (.vector_60) <= (_vector_spacing << 0x5))), function at exception vector 60 too large)

.vector_61      0x9fc019a0        0x0
 *(.vector_61)
                0x00000001                ASSERT (((_vector_spacing == 0x0) || (SIZEOF (.vector_61) <= (_vector_spacing << 0x5))), function at exception vector 61 too large)

.vector_62      0x9fc019c0        0x0
 *(.vector_62)
                0x00000001                ASSERT (((_vector_spacing == 0x0) || (SIZEOF (.vector_62) <= (_vector_spacing << 0x5))), function at exception vector 62 too large)

.vector_63      0x9fc019e0        0x0
 *(.vector_63)
                0x00000001                ASSERT (((_vector_spacing == 0x0) || (SIZEOF (.vector_63) <= (_vector_spacing << 0x5))), function at exception vector 63 too large)

.startup
 *(.startup)

.text           0x9d000000        0x0
 *(.stub .gnu.linkonce.t.*)
 *(.text.*personality*)
 *(.mips16.fn.*)
 *(.mips16.call.*)
 *(.gnu.warning)
                0x9d000000                . = ALIGN (0x4)

.init           0x9d000000        0x0
 *crti.o(.init)
 *crtbegin.o(.init)
 *(EXCLUDE_FILE(*crtn.o *crtend?.o *crtend.o) .init)
 *crtend.o(.init)
 *crtn.o(.init)
                0x9d000000                . = ALIGN (0x4)

.fini           0x9d000000        0x0
 *(.fini)
                0x9d000000                . = ALIGN (0x4)

.preinit_array  0x9d000000        0x0
                0x9d000000                PROVIDE (__preinit_array_start, .)
 *(.preinit_array)
                0x9d000000                PROVIDE (__preinit_array_end, .)
                0x9d000000                . = ALIGN (0x4)

.init_array     0x9d000000        0x0
                0x9d000000                PROVIDE (__init_array_start, .)
 *(SORT(.init_array.*))
 *(.init_array)
                0x9d000000                PROVIDE (__init_array_end, .)
                0x9d000000                . = ALIGN (0x4)

.fini_array     0x9d000000        0x0
                0x9d000000                PROVIDE (__fini_array_start, .)
 *(SORT(.fini_array.*))
 *(.fini_array)
                0x9d000000                PROVIDE (__fini_array_end, .)
                0x9d000000                . = ALIGN (0x4)

.ctors          0x9d000000        0x0
 *crtbegin.o(.ctors)
 *crtbegin?.o(.ctors)
 *(EXCLUDE_FILE(*crtend?.o *crtend.o) .ctors)
 *(SORT(.ctors.*))
 *(.ctors)
                0x9d000000                . = ALIGN (0x4)

.dtors          0x9d000000        0x0
 *crtbegin.o(.dtors)
 *crtbegin?.o(.dtors)
 *(EXCLUDE_FILE(*crtend?.o *crtend.o) .dtors)
 *(SORT(.dtors.*))
 *(.dtors)
                0x9d000000                . = ALIGN (0x4)

.rodata         0x9d000000        0x0
 *(.gnu.linkonce.r.*)
 *(.rodata1)
                0x9d000000                . = ALIGN (0x4)

.sdata2         0x9fc00490        0x0
 *(.sdata2 .sdata2.* .gnu.linkonce.s2.*)
                0x9fc00490                . = ALIGN (0x4)

.sbss2          0x9fc00490        0x0
 *(.sbss2 .sbss2.* .gnu.linkonce.sb2.*)
                0x9fc00490                . = ALIGN (0x4)

.eh_frame_hdr
 *(.eh_frame_hdr)
                0x9fc00490                . = ALIGN (0x4)

.eh_frame
 *(.eh_frame)
                0x9fc00490                . = ALIGN (0x4)

.gcc_except_table
 *(.gcc_except_table .gcc_except_table.*)
                0x9fc00490                . = ALIGN (0x4)

.dbg_data       0xa0000200        0x0
                0xa0000200                . = (. + DEFINED (_DEBUGGER)?0x200:0x0)

.jcr            0xa0000200        0x0
 *(.jcr)
                0xa0000200                . = ALIGN (0x4)

.eh_frame
 *(.eh_frame)
                0xa0000200                . = ALIGN (0x4)

.gcc_except_table
 *(.gcc_except_table .gcc_except_table.*)
                0xa0000200                . = ALIGN (0x4)

.persist        0xa0000200        0x0
                0xa0000200                _persist_begin = .
 *(.persist .persist.*)
 *(.pbss .pbss.*)
                0xa0000200                . = ALIGN (0x4)
                0xa0000200                _persist_end = .

.data           0xa0000200        0x0
 *(.gnu.linkonce.d.*)
 *(.data1)
                0xa0000200                . = ALIGN (0x4)
                0xa0000200                . = .
                0xa00081f0                _gp = (ALIGN (0x10) + 0x7ff0)

.got            0xa0000200        0x0
 *(.got.plt)
 *(.got)
                0xa0000200                . = ALIGN (0x4)

.sdata          0xa0000200        0xc
                0xa0000200                _sdata_begin = .
 *(.sdata .sdata.* .gnu.linkonce.s.*)
 .sdata         0xa0000200        0x4 build/configRover/debug/_ext/1062886388/port.o
                0xa0000200                uxInterruptNesting
 .sdata         0xa0000204        0x4 build/configRover/debug/_ext/184327166/tasks.o
                0xa0000204                xNextTaskUnblockTime
 .sdata         0xa0000208        0x4 c:/program files (x86)/microchip/xc32/v1.40/bin/bin/../../lib/gcc/pic32mx/4.8.3/../../../../pic32mx/lib\libpic32.a(xc32_uart.o)
                0xa0000208                __XC_UART
                0xa000020c                . = ALIGN (0x4)
                0xa000020c                _sdata_end = .

.lit8
 *(.lit8)

.lit4
 *(.lit4)
                0xa000020c                . = ALIGN (0x4)
                0xa000020c                _data_end = .
                0xa000020c                _bss_begin = .

.sbss           0xa000020c       0xa0
                0xa000020c                _sbss_begin = .
 *(.dynsbss)
 *(.sbss .sbss.* .gnu.linkonce.sb.*)
 .sbss          0xa000020c       0x24 build/configRover/debug/_ext/369138285/system_interrupt.o
                0xa000020c                LedgeType
                0xa0000210                RedgeType
                0xa0000214                i
                0xa0000218                Ravg
                0xa000021c                Lavg
                0xa0000220                temp
                0xa0000224                LTotal
                0xa0000228                RTotal
                0xa000022c                n
 .sbss          0xa0000230        0xc build/configRover/debug/_ext/369138285/system_exceptions.o
 .sbss          0xa000023c        0x8 build/configRover/debug/_ext/1818123999/heap_1.o
 .sbss          0xa0000244        0x4 build/configRover/debug/_ext/1062886388/port.o
                0xa0000244                uxSavedTaskStackPointer
 .sbss          0xa0000248       0x14 build/configRover/debug/_ext/184327166/croutine.o
                0xa0000248                pxCurrentCoRoutine
                0xa000024c                uxTopCoRoutineReadyPriority
                0xa0000250                xCoRoutineTickCount
                0xa0000254                xLastTickCount
                0xa0000258                xPassedTicks
 .sbss          0xa000025c       0x2c build/configRover/debug/_ext/184327166/tasks.o
                0xa000025c                pxCurrentTCB
                0xa0000260                uxTasksDeleted
                0xa0000264                uxCurrentNumberOfTasks
                0xa0000268                xTickCount
                0xa000026c                uxTopReadyPriority
                0xa0000270                xSchedulerRunning
                0xa0000274                uxPendedTicks
                0xa0000278                xYieldPending
                0xa000027c                xNumOfOverflows
                0xa0000280                uxTaskNumber
                0xa0000284                uxSchedulerSuspended
 *(.scommon)
 .scommon       0xa0000288        0x8 build/configRover/debug/_ext/351848739/sys_devcon.o
                0xa0000288                sysDevconObj
 .scommon       0xa0000290        0x8 build/configRover/debug/_ext/184327166/croutine.o
                0xa0000290                pxOverflowDelayedCoRoutineList
                0xa0000294                pxDelayedCoRoutineList
 .scommon       0xa0000298        0x8 build/configRover/debug/_ext/184327166/tasks.o
                0xa0000298                pxDelayedTaskList
                0xa000029c                pxOverflowDelayedTaskList
 .scommon       0xa00002a0        0xc build/configRover/debug/_ext/1536116519/debug.o
                0xa00002a0                debugQueue
                0xa00002a4                lastTime
                0xa00002a8                msTime
                0xa00002ac                _sbss_end = .
                0xa00002ac                . = ALIGN (0x4)

.bss            0xa00002ac      0x15c
 *(.dynbss)
 *(COMMON)
 COMMON         0xa00002ac       0x14 build/configRover/debug/_ext/369138285/system_init.o
                0xa00002ac                sysObj
 COMMON         0xa00002c0       0x48 build/configRover/debug/_ext/1360937237/communication.o
                0xa00002c0                communicationData
 COMMON         0xa0000308       0x38 build/configRover/debug/_ext/1360937237/motor.o
                0xa0000308                motorData
 COMMON         0xa0000340       0xc8 build/configRover/debug/_ext/184327166/tasks.o
                0xa0000340                pxReadyTasksLists
                0xa00003a4                xPendingReadyList
                0xa00003b8                xTasksWaitingTermination
                0xa00003cc                xSuspendedTaskList
                0xa00003e0                xDelayedTaskList2
                0xa00003f4                xDelayedTaskList1
                0xa0000408                . = ALIGN ((. != 0x0)?0x4:0x1)
                0xa0000408                . = ALIGN (0x4)
                0xa0000408                _end = .
                0xa0000408                _bss_end = .
                0x00020000                _bmxdudba_address = 0x20000
                0x00020000                _bmxdupba_address = 0x20000

/DISCARD/
 *(.pdr)
 *(.rel.dyn)
 *(.note.GNU-stack)
 *(.note.GNU-stack)
 *(.gnu_debuglink)
 *(.gnu.lto_*)
 *(.discard)

.gptab.sdata
 *(.gptab.data)
 *(.gptab.sdata)

.gptab.sbss
 *(.gptab.bss)
 *(.gptab.sbss)

.mdebug.abi32   0xa0000408        0x0
 *(.mdebug.abi32)
 .mdebug.abi32  0xa0000408        0x0 c:/program files (x86)/microchip/xc32/v1.40/bin/bin/../../lib/gcc/pic32mx/4.8.3/../../../../pic32mx/lib\software-debug-break.o
 .mdebug.abi32  0xa0000408        0x0 build/configRover/debug/_ext/64793341/drv_oc_static.o
 .mdebug.abi32  0xa0000408        0x0 build/configRover/debug/_ext/1797679462/drv_tmr_static.o
 .mdebug.abi32  0xa0000408        0x0 build/configRover/debug/_ext/1532176561/drv_usart_static.o
 .mdebug.abi32  0xa0000408        0x0 build/configRover/debug/_ext/249367850/sys_clk_static.o
 .mdebug.abi32  0xa0000408        0x0 build/configRover/debug/_ext/1926720346/sys_ports_static.o
 .mdebug.abi32  0xa0000408        0x0 build/configRover/debug/_ext/369138285/system_init.o
 .mdebug.abi32  0xa0000408        0x0 build/configRover/debug/_ext/369138285/system_interrupt.o
 .mdebug.abi32  0xa0000408        0x0 build/configRover/debug/_ext/369138285/system_exceptions.o
 .mdebug.abi32  0xa0000408        0x0 build/configRover/debug/_ext/369138285/system_tasks.o
 .mdebug.abi32  0xa0000408        0x0 build/configRover/debug/_ext/369138285/rtos_hooks.o
 .mdebug.abi32  0xa0000408        0x0 build/configRover/debug/_ext/1360937237/communication.o
 .mdebug.abi32  0xa0000408        0x0 build/configRover/debug/_ext/1360937237/motor.o
 .mdebug.abi32  0xa0000408        0x0 build/configRover/debug/_ext/1360937237/main.o
 .mdebug.abi32  0xa0000408        0x0 build/configRover/debug/_ext/1879384925/osal_freertos.o
 .mdebug.abi32  0xa0000408        0x0 build/configRover/debug/_ext/351848739/sys_devcon.o
 .mdebug.abi32  0xa0000408        0x0 build/configRover/debug/_ext/351848739/sys_devcon_pic32mx.o
 .mdebug.abi32  0xa0000408        0x0 build/configRover/debug/_ext/474818461/sys_int_pic32.o
 .mdebug.abi32  0xa0000408        0x0 build/configRover/debug/_ext/1139950406/sys_ports.o
 .mdebug.abi32  0xa0000408        0x0 build/configRover/debug/_ext/1818123999/heap_1.o
 .mdebug.abi32  0xa0000408        0x0 build/configRover/debug/_ext/1062886388/port.o
 .mdebug.abi32  0xa0000408        0x0 build/configRover/debug/_ext/184327166/croutine.o
 .mdebug.abi32  0xa0000408        0x0 build/configRover/debug/_ext/184327166/list.o
 .mdebug.abi32  0xa0000408        0x0 build/configRover/debug/_ext/184327166/queue.o
 .mdebug.abi32  0xa0000408        0x0 build/configRover/debug/_ext/184327166/tasks.o
 .mdebug.abi32  0xa0000408        0x0 build/configRover/debug/_ext/184327166/timers.o
 .mdebug.abi32  0xa0000408        0x0 build/configRover/debug/_ext/184327166/event_groups.o
 .mdebug.abi32  0xa0000408        0x0 build/configRover/debug/_ext/1536116519/debug.o
 .mdebug.abi32  0xa0000408        0x0 build/configRover/debug/_ext/1360937237/timer.o
 .mdebug.abi32  0xa0000408        0x0 c:/program files (x86)/microchip/xc32/v1.40/bin/bin/../../lib/gcc/pic32mx/4.8.3/../../../../pic32mx/lib\libpic32.a(default-bootstrap-exception-handler.o)
 .mdebug.abi32  0xa0000408        0x0 c:/program files (x86)/microchip/xc32/v1.40/bin/bin/../../lib/gcc/pic32mx/4.8.3/../../../../pic32mx/lib\libpic32.a(default-on-reset.o)
 .mdebug.abi32  0xa0000408        0x0 c:/program files (x86)/microchip/xc32/v1.40/bin/bin/../../lib/gcc/pic32mx/4.8.3/../../../../pic32mx/lib\libpic32.a(default-on-bootstrap.o)
 .mdebug.abi32  0xa0000408        0x0 c:/program files (x86)/microchip/xc32/v1.40/bin/bin/../../lib/gcc/pic32mx/4.8.3/../../../../pic32mx/lib\libpic32.a(defaultinterrupt.o)
 .mdebug.abi32  0xa0000408        0x0 c:/program files (x86)/microchip/xc32/v1.40/bin/bin/../../lib/gcc/pic32mx/4.8.3/../../../../pic32mx/lib\libc.a(snprintf_fF.eo)
 .mdebug.abi32  0xa0000408        0x0 c:/program files (x86)/microchip/xc32/v1.40/bin/bin/../../lib/gcc/pic32mx/4.8.3/../../../../pic32mx/lib\libc.a(sprintf_cdnopuxX.eo)
 .mdebug.abi32  0xa0000408        0x0 c:/program files (x86)/microchip/xc32/v1.40/bin/bin/../../lib/gcc/pic32mx/4.8.3/../../../../pic32mx/lib\libc.a(vsnprintf_fF.eo)
 .mdebug.abi32  0xa0000408        0x0 c:/program files (x86)/microchip/xc32/v1.40/bin/bin/../../lib/gcc/pic32mx/4.8.3/../../../../pic32mx/lib\libc.a(_fputc_simple.o)
 .mdebug.abi32  0xa0000408        0x0 c:/program files (x86)/microchip/xc32/v1.40/bin/bin/../../lib/gcc/pic32mx/4.8.3/../../../../pic32mx/lib\libc.a(ctype.o)
 .mdebug.abi32  0xa0000408        0x0 c:/program files (x86)/microchip/xc32/v1.40/bin/bin/../../lib/gcc/pic32mx/4.8.3/../../../../pic32mx/lib\libc.a(powersf.o)
 .mdebug.abi32  0xa0000408        0x0 c:/program files (x86)/microchip/xc32/v1.40/bin/bin/../../lib/gcc/pic32mx/4.8.3/../../../../pic32mx/lib\libc.a(_iob.o)
 .mdebug.abi32  0xa0000408        0x0 c:/program files (x86)/microchip/xc32/v1.40/bin/bin/../../lib/gcc/pic32mx/4.8.3/../../../../pic32mx/lib\libc.a(_flsbuf_simple.o)
 .mdebug.abi32  0xa0000408        0x0 c:/program files (x86)/microchip/xc32/v1.40/bin/bin/../../lib/gcc/pic32mx/4.8.3/../../../../pic32mx/lib\libpic32.a(write.o)
 .mdebug.abi32  0xa0000408        0x0 c:/program files (x86)/microchip/xc32/v1.40/bin/bin/../../lib/gcc/pic32mx/4.8.3/../../../../pic32mx/lib\libpic32.a(_mon_putc.o)
 .mdebug.abi32  0xa0000408        0x0 c:/program files (x86)/microchip/xc32/v1.40/bin/bin/../../lib/gcc/pic32mx/4.8.3/../../../../pic32mx/lib\libpic32.a(xc32_uart.o)
 .mdebug.abi32  0xa0000408        0x0 c:/program files (x86)/microchip/xc32/v1.40/bin/bin/../../lib/gcc/pic32mx/4.8.3/../../../../pic32mx/lib\libe.a(_floatdisf.o)
 .mdebug.abi32  0xa0000408        0x0 c:/program files (x86)/microchip/xc32/v1.40/bin/bin/../../lib/gcc/pic32mx/4.8.3\libgcc.a(_udivdi3.o)
 .mdebug.abi32  0xa0000408        0x0 c:/program files (x86)/microchip/xc32/v1.40/bin/bin/../../lib/gcc/pic32mx/4.8.3\libgcc.a(_umoddi3.o)
 .mdebug.abi32  0xa0000408        0x0 c:/program files (x86)/microchip/xc32/v1.40/bin/bin/../../lib/gcc/pic32mx/4.8.3\libgcc.a(floatunsisf.o)
 .mdebug.abi32  0xa0000408        0x0 c:/program files (x86)/microchip/xc32/v1.40/bin/bin/../../lib/gcc/pic32mx/4.8.3/../../../../pic32mx/lib\libc.a(doprnt_cdfFnopuxX.eo)

.mdebug.abiN32
 *(.mdebug.abiN32)

.mdebug.abi64
 *(.mdebug.abi64)

.mdebug.abiO64
 *(.mdebug.abiO64)

.mdebug.eabi32
 *(.mdebug.eabi32)

.mdebug.eabi64
 *(.mdebug.eabi64)

.gcc_compiled_long32
 *(.gcc_compiled_long32)

.gcc_compiled_long64
 *(.gcc_compiled_long64)

.stab
 *(.stab)

.stabstr
 *(.stabstr)

.stab.excl
 *(.stab.excl)

.stab.exclstr
 *(.stab.exclstr)

.stab.index
 *(.stab.index)

.stab.indexstr
 *(.stab.indexstr)

.comment        0x00000000      0x158
 *(.comment)
 .comment       0x00000000       0x3c c:/program files (x86)/microchip/xc32/v1.40/bin/bin/../../lib/gcc/pic32mx/4.8.3/../../../../pic32mx/lib\software-debug-break.o
                                 0x3d (size before relaxing)
 .comment       0x00000000       0x3d build/configRover/debug/_ext/64793341/drv_oc_static.o
 .comment       0x00000000       0x3d build/configRover/debug/_ext/1797679462/drv_tmr_static.o
 .comment       0x00000000       0x3d build/configRover/debug/_ext/1532176561/drv_usart_static.o
 .comment       0x00000000       0x3d build/configRover/debug/_ext/249367850/sys_clk_static.o
 .comment       0x00000000       0x3d build/configRover/debug/_ext/1926720346/sys_ports_static.o
 .comment       0x00000000       0x3d build/configRover/debug/_ext/369138285/system_init.o
 .comment       0x00000000       0x3d build/configRover/debug/_ext/369138285/system_interrupt.o
 .comment       0x00000000       0x3d build/configRover/debug/_ext/369138285/system_exceptions.o
 .comment       0x00000000       0x3d build/configRover/debug/_ext/369138285/system_tasks.o
 .comment       0x00000000       0x3d build/configRover/debug/_ext/369138285/rtos_hooks.o
 .comment       0x00000000       0x3d build/configRover/debug/_ext/1360937237/communication.o
 .comment       0x00000000       0x3d build/configRover/debug/_ext/1360937237/motor.o
 .comment       0x00000000       0x3d build/configRover/debug/_ext/1360937237/main.o
 .comment       0x00000000       0x3d build/configRover/debug/_ext/1879384925/osal_freertos.o
 .comment       0x00000000       0x3d build/configRover/debug/_ext/351848739/sys_devcon.o
 .comment       0x00000000       0x3d build/configRover/debug/_ext/351848739/sys_devcon_pic32mx.o
 .comment       0x00000000       0x3d build/configRover/debug/_ext/474818461/sys_int_pic32.o
 .comment       0x00000000       0x3d build/configRover/debug/_ext/1139950406/sys_ports.o
 .comment       0x00000000       0x3d build/configRover/debug/_ext/1818123999/heap_1.o
 .comment       0x00000000       0x3d build/configRover/debug/_ext/1062886388/port.o
 .comment       0x00000000       0x3d build/configRover/debug/_ext/184327166/croutine.o
 .comment       0x00000000       0x3d build/configRover/debug/_ext/184327166/list.o
 .comment       0x00000000       0x3d build/configRover/debug/_ext/184327166/queue.o
 .comment       0x00000000       0x3d build/configRover/debug/_ext/184327166/tasks.o
 .comment       0x00000000       0x3d build/configRover/debug/_ext/184327166/timers.o
 .comment       0x00000000       0x3d build/configRover/debug/_ext/184327166/event_groups.o
 .comment       0x00000000       0x3d build/configRover/debug/_ext/1536116519/debug.o
 .comment       0x00000000       0x3d build/configRover/debug/_ext/1360937237/timer.o
 .comment       0x0000003c       0x18 c:/program files (x86)/microchip/xc32/v1.40/bin/bin/../../lib/gcc/pic32mx/4.8.3/../../../../pic32mx/lib\libpic32.a(memset.o)
                                 0x19 (size before relaxing)
 .comment       0x00000000       0x3d c:/program files (x86)/microchip/xc32/v1.40/bin/bin/../../lib/gcc/pic32mx/4.8.3/../../../../pic32mx/lib\libpic32.a(default-bootstrap-exception-handler.o)
 .comment       0x00000000       0x3d c:/program files (x86)/microchip/xc32/v1.40/bin/bin/../../lib/gcc/pic32mx/4.8.3/../../../../pic32mx/lib\libpic32.a(default-on-reset.o)
 .comment       0x00000000       0x3d c:/program files (x86)/microchip/xc32/v1.40/bin/bin/../../lib/gcc/pic32mx/4.8.3/../../../../pic32mx/lib\libpic32.a(default-on-bootstrap.o)
 .comment       0x00000054       0x18 c:/program files (x86)/microchip/xc32/v1.40/bin/bin/../../lib/gcc/pic32mx/4.8.3/../../../../pic32mx/lib\libpic32.a(memcmp.o)
                                 0x19 (size before relaxing)
 .comment       0x00000000       0x3d c:/program files (x86)/microchip/xc32/v1.40/bin/bin/../../lib/gcc/pic32mx/4.8.3/../../../../pic32mx/lib\libpic32.a(defaultinterrupt.o)
 .comment       0x00000000       0x3d c:/program files (x86)/microchip/xc32/v1.40/bin/bin/../../lib/gcc/pic32mx/4.8.3/../../../../pic32mx/lib\libc.a(snprintf_fF.eo)
 .comment       0x00000000       0x3d c:/program files (x86)/microchip/xc32/v1.40/bin/bin/../../lib/gcc/pic32mx/4.8.3/../../../../pic32mx/lib\libc.a(sprintf_cdnopuxX.eo)
 .comment       0x00000000       0x3d c:/program files (x86)/microchip/xc32/v1.40/bin/bin/../../lib/gcc/pic32mx/4.8.3/../../../../pic32mx/lib\libc.a(vsnprintf_fF.eo)
 .comment       0x00000000       0x3d c:/program files (x86)/microchip/xc32/v1.40/bin/bin/../../lib/gcc/pic32mx/4.8.3/../../../../pic32mx/lib\libc.a(_fputc_simple.o)
 .comment       0x0000006c       0x4e c:/program files (x86)/microchip/xc32/v1.40/bin/bin/../../lib/gcc/pic32mx/4.8.3/../../../../pic32mx/lib\libc.a(ctype.o)
                                 0x8b (size before relaxing)
 .comment       0x00000000       0x3d c:/program files (x86)/microchip/xc32/v1.40/bin/bin/../../lib/gcc/pic32mx/4.8.3/../../../../pic32mx/lib\libc.a(powersf.o)
 .comment       0x00000000       0x3d c:/program files (x86)/microchip/xc32/v1.40/bin/bin/../../lib/gcc/pic32mx/4.8.3/../../../../pic32mx/lib\libc.a(_iob.o)
 .comment       0x00000000       0x3d c:/program files (x86)/microchip/xc32/v1.40/bin/bin/../../lib/gcc/pic32mx/4.8.3/../../../../pic32mx/lib\libc.a(_flsbuf_simple.o)
 .comment       0x00000000       0x3d c:/program files (x86)/microchip/xc32/v1.40/bin/bin/../../lib/gcc/pic32mx/4.8.3/../../../../pic32mx/lib\libpic32.a(write.o)
 .comment       0x00000000       0x3d c:/program files (x86)/microchip/xc32/v1.40/bin/bin/../../lib/gcc/pic32mx/4.8.3/../../../../pic32mx/lib\libpic32.a(_mon_putc.o)
 .comment       0x00000000       0x3d c:/program files (x86)/microchip/xc32/v1.40/bin/bin/../../lib/gcc/pic32mx/4.8.3/../../../../pic32mx/lib\libpic32.a(xc32_uart.o)
 .comment       0x000000ba       0x9e c:/program files (x86)/microchip/xc32/v1.40/bin/bin/../../lib/gcc/pic32mx/4.8.3/../../../../pic32mx/lib\libe.a(_floatdisf.o)
                                 0xdb (size before relaxing)
 .comment       0x00000000       0x3d c:/program files (x86)/microchip/xc32/v1.40/bin/bin/../../lib/gcc/pic32mx/4.8.3\libgcc.a(_udivdi3.o)
 .comment       0x00000000       0x3d c:/program files (x86)/microchip/xc32/v1.40/bin/bin/../../lib/gcc/pic32mx/4.8.3\libgcc.a(_umoddi3.o)
 .comment       0x00000000       0x3d c:/program files (x86)/microchip/xc32/v1.40/bin/bin/../../lib/gcc/pic32mx/4.8.3\libgcc.a(floatunsisf.o)
 .comment       0x00000000       0x3d c:/program files (x86)/microchip/xc32/v1.40/bin/bin/../../lib/gcc/pic32mx/4.8.3/../../../../pic32mx/lib\libc.a(doprnt_cdfFnopuxX.eo)

.debug
 *(.debug)

.line
 *(.line)

.debug_srcinfo
 *(.debug_srcinfo)

.debug_sfnames
 *(.debug_sfnames)

.debug_aranges  0x00000000      0xd90
 *(.debug_aranges)
 .debug_aranges
                0x00000000       0x20 c:/program files (x86)/microchip/xc32/v1.40/bin/bin/../../lib/gcc/pic32mx/4.8.3/../../../../pic32mx/lib\software-debug-break.o
 .debug_aranges
                0x00000020       0x78 build/configRover/debug/_ext/64793341/drv_oc_static.o
 .debug_aranges
                0x00000098       0xd8 build/configRover/debug/_ext/1797679462/drv_tmr_static.o
 .debug_aranges
                0x00000170       0x48 build/configRover/debug/_ext/1532176561/drv_usart_static.o
 .debug_aranges
                0x000001b8       0x38 build/configRover/debug/_ext/249367850/sys_clk_static.o
 .debug_aranges
                0x000001f0       0x20 build/configRover/debug/_ext/1926720346/sys_ports_static.o
 .debug_aranges
                0x00000210       0x20 build/configRover/debug/_ext/369138285/system_init.o
 .debug_aranges
                0x00000230       0x58 build/configRover/debug/_ext/369138285/system_interrupt.o
 .debug_aranges
                0x00000288       0x20 build/configRover/debug/_ext/369138285/system_exceptions.o
 .debug_aranges
                0x000002a8       0x38 build/configRover/debug/_ext/369138285/system_tasks.o
 .debug_aranges
                0x000002e0       0x98 build/configRover/debug/_ext/369138285/system_interrupt_a.o
 .debug_aranges
                0x00000378       0x28 build/configRover/debug/_ext/369138285/rtos_hooks.o
 .debug_aranges
                0x000003a0       0x80 build/configRover/debug/_ext/1360937237/communication.o
 .debug_aranges
                0x00000420       0x70 build/configRover/debug/_ext/1360937237/motor.o
 .debug_aranges
                0x00000490       0x20 build/configRover/debug/_ext/1360937237/main.o
 .debug_aranges
                0x000004b0       0x88 build/configRover/debug/_ext/1879384925/osal_freertos.o
 .debug_aranges
                0x00000538       0x78 build/configRover/debug/_ext/351848739/sys_devcon.o
 .debug_aranges
                0x000005b0       0x20 build/configRover/debug/_ext/351848739/sys_devcon_pic32mx.o
 .debug_aranges
                0x000005d0       0x48 build/configRover/debug/_ext/474818461/sys_int_pic32.o
 .debug_aranges
                0x00000618       0xf8 build/configRover/debug/_ext/1139950406/sys_ports.o
 .debug_aranges
                0x00000710       0x38 build/configRover/debug/_ext/1818123999/heap_1.o
 .debug_aranges
                0x00000748       0x58 build/configRover/debug/_ext/1062886388/port.o
 .debug_aranges
                0x000007a0       0x20 build/configRover/debug/_ext/1062886388/port_asm.o
 .debug_aranges
                0x000007c0       0x50 build/configRover/debug/_ext/184327166/croutine.o
 .debug_aranges
                0x00000810       0x40 build/configRover/debug/_ext/184327166/list.o
 .debug_aranges
                0x00000850       0xb0 build/configRover/debug/_ext/184327166/queue.o
 .debug_aranges
                0x00000900      0x190 build/configRover/debug/_ext/184327166/tasks.o
 .debug_aranges
                0x00000a90       0x18 build/configRover/debug/_ext/184327166/timers.o
 .debug_aranges
                0x00000aa8       0x60 build/configRover/debug/_ext/184327166/event_groups.o
 .debug_aranges
                0x00000b08       0x80 build/configRover/debug/_ext/1536116519/debug.o
 .debug_aranges
                0x00000b88       0x20 c:/program files (x86)/microchip/xc32/v1.40/bin/bin/../../lib/gcc/pic32mx/4.8.3/../../../../pic32mx/lib\libpic32.a(default-bootstrap-exception-handler.o)
 .debug_aranges
                0x00000ba8       0x20 c:/program files (x86)/microchip/xc32/v1.40/bin/bin/../../lib/gcc/pic32mx/4.8.3/../../../../pic32mx/lib\libpic32.a(default-on-reset.o)
 .debug_aranges
                0x00000bc8       0x20 c:/program files (x86)/microchip/xc32/v1.40/bin/bin/../../lib/gcc/pic32mx/4.8.3/../../../../pic32mx/lib\libpic32.a(default-on-bootstrap.o)
 .debug_aranges
                0x00000be8       0x20 c:/program files (x86)/microchip/xc32/v1.40/bin/bin/../../lib/gcc/pic32mx/4.8.3/../../../../pic32mx/lib\libpic32.a(defaultinterrupt.o)
 .debug_aranges
                0x00000c08       0x20 c:/program files (x86)/microchip/xc32/v1.40/bin/bin/../../lib/gcc/pic32mx/4.8.3/../../../../pic32mx/lib\libc.a(snprintf_fF.eo)
 .debug_aranges
                0x00000c28       0x20 c:/program files (x86)/microchip/xc32/v1.40/bin/bin/../../lib/gcc/pic32mx/4.8.3/../../../../pic32mx/lib\libc.a(sprintf_cdnopuxX.eo)
 .debug_aranges
                0x00000c48       0x20 c:/program files (x86)/microchip/xc32/v1.40/bin/bin/../../lib/gcc/pic32mx/4.8.3/../../../../pic32mx/lib\libc.a(vsnprintf_fF.eo)
 .debug_aranges
                0x00000c68       0x20 c:/program files (x86)/microchip/xc32/v1.40/bin/bin/../../lib/gcc/pic32mx/4.8.3/../../../../pic32mx/lib\libc.a(_fputc_simple.o)
 .debug_aranges
                0x00000c88       0x20 c:/program files (x86)/microchip/xc32/v1.40/bin/bin/../../lib/gcc/pic32mx/4.8.3/../../../../pic32mx/lib\libc.a(_flsbuf_simple.o)
 .debug_aranges
                0x00000ca8       0x20 c:/program files (x86)/microchip/xc32/v1.40/bin/bin/../../lib/gcc/pic32mx/4.8.3/../../../../pic32mx/lib\libpic32.a(write.o)
 .debug_aranges
                0x00000cc8       0x20 c:/program files (x86)/microchip/xc32/v1.40/bin/bin/../../lib/gcc/pic32mx/4.8.3/../../../../pic32mx/lib\libpic32.a(_mon_putc.o)
 .debug_aranges
                0x00000ce8       0x20 c:/program files (x86)/microchip/xc32/v1.40/bin/bin/../../lib/gcc/pic32mx/4.8.3/../../../../pic32mx/lib\libe.a(_floatdisf.o)
 .debug_aranges
                0x00000d08       0x20 c:/program files (x86)/microchip/xc32/v1.40/bin/bin/../../lib/gcc/pic32mx/4.8.3\libgcc.a(_udivdi3.o)
 .debug_aranges
                0x00000d28       0x20 c:/program files (x86)/microchip/xc32/v1.40/bin/bin/../../lib/gcc/pic32mx/4.8.3\libgcc.a(_umoddi3.o)
 .debug_aranges
                0x00000d48       0x20 c:/program files (x86)/microchip/xc32/v1.40/bin/bin/../../lib/gcc/pic32mx/4.8.3\libgcc.a(floatunsisf.o)
 .debug_aranges
                0x00000d68       0x28 c:/program files (x86)/microchip/xc32/v1.40/bin/bin/../../lib/gcc/pic32mx/4.8.3/../../../../pic32mx/lib\libc.a(doprnt_cdfFnopuxX.eo)

.debug_pubnames
 *(.debug_pubnames)

.debug_info     0x00000000    0x24ede
 *(.debug_info .gnu.linkonce.wi.*)
 .debug_info    0x00000000       0xd3 c:/program files (x86)/microchip/xc32/v1.40/bin/bin/../../lib/gcc/pic32mx/4.8.3/../../../../pic32mx/lib\software-debug-break.o
 .debug_info    0x000000d3     0x12a3 build/configRover/debug/_ext/64793341/drv_oc_static.o
 .debug_info    0x00001376     0x2dfc build/configRover/debug/_ext/1797679462/drv_tmr_static.o
 .debug_info    0x00004172     0x3776 build/configRover/debug/_ext/1532176561/drv_usart_static.o
 .debug_info    0x000078e8     0x10b0 build/configRover/debug/_ext/249367850/sys_clk_static.o
 .debug_info    0x00008998      0xcb3 build/configRover/debug/_ext/1926720346/sys_ports_static.o
 .debug_info    0x0000964b     0x23a6 build/configRover/debug/_ext/369138285/system_init.o
 .debug_info    0x0000b9f1     0x1f2d build/configRover/debug/_ext/369138285/system_interrupt.o
 .debug_info    0x0000d91e      0x7b3 build/configRover/debug/_ext/369138285/system_exceptions.o
 .debug_info    0x0000e0d1      0xb9d build/configRover/debug/_ext/369138285/system_tasks.o
 .debug_info    0x0000ec6e       0x90 build/configRover/debug/_ext/369138285/system_interrupt_a.o
 .debug_info    0x0000ecfe      0x24a build/configRover/debug/_ext/369138285/rtos_hooks.o
 .debug_info    0x0000ef48     0x2804 build/configRover/debug/_ext/1360937237/communication.o
 .debug_info    0x0001174c     0x1b05 build/configRover/debug/_ext/1360937237/motor.o
 .debug_info    0x00013251      0x19c build/configRover/debug/_ext/1360937237/main.o
 .debug_info    0x000133ed      0xa72 build/configRover/debug/_ext/1879384925/osal_freertos.o
 .debug_info    0x00013e5f     0x1093 build/configRover/debug/_ext/351848739/sys_devcon.o
 .debug_info    0x00014ef2      0xd5d build/configRover/debug/_ext/351848739/sys_devcon_pic32mx.o
 .debug_info    0x00015c4f     0x15cc build/configRover/debug/_ext/474818461/sys_int_pic32.o
 .debug_info    0x0001721b     0x3261 build/configRover/debug/_ext/1139950406/sys_ports.o
 .debug_info    0x0001a47c      0x380 build/configRover/debug/_ext/1818123999/heap_1.o
 .debug_info    0x0001a7fc     0x11b4 build/configRover/debug/_ext/1062886388/port.o
 .debug_info    0x0001b9b0       0xc5 build/configRover/debug/_ext/1062886388/port_asm.o
 .debug_info    0x0001ba75      0xb96 build/configRover/debug/_ext/184327166/croutine.o
 .debug_info    0x0001c60b      0x480 build/configRover/debug/_ext/184327166/list.o
 .debug_info    0x0001ca8b     0x177a build/configRover/debug/_ext/184327166/queue.o
 .debug_info    0x0001e205     0x28d4 build/configRover/debug/_ext/184327166/tasks.o
 .debug_info    0x00020ad9      0x175 build/configRover/debug/_ext/184327166/timers.o
 .debug_info    0x00020c4e      0xd5b build/configRover/debug/_ext/184327166/event_groups.o
 .debug_info    0x000219a9     0x1b38 build/configRover/debug/_ext/1536116519/debug.o
 .debug_info    0x000234e1       0xe3 c:/program files (x86)/microchip/xc32/v1.40/bin/bin/../../lib/gcc/pic32mx/4.8.3/../../../../pic32mx/lib\libpic32.a(default-bootstrap-exception-handler.o)
 .debug_info    0x000235c4       0xbd c:/program files (x86)/microchip/xc32/v1.40/bin/bin/../../lib/gcc/pic32mx/4.8.3/../../../../pic32mx/lib\libpic32.a(default-on-reset.o)
 .debug_info    0x00023681       0xc5 c:/program files (x86)/microchip/xc32/v1.40/bin/bin/../../lib/gcc/pic32mx/4.8.3/../../../../pic32mx/lib\libpic32.a(default-on-bootstrap.o)
 .debug_info    0x00023746       0xd7 c:/program files (x86)/microchip/xc32/v1.40/bin/bin/../../lib/gcc/pic32mx/4.8.3/../../../../pic32mx/lib\libpic32.a(defaultinterrupt.o)
 .debug_info    0x0002381d       0xbe c:/program files (x86)/microchip/xc32/v1.40/bin/bin/../../lib/gcc/pic32mx/4.8.3/../../../../pic32mx/lib\libc.a(snprintf_fF.eo)
 .debug_info    0x000238db       0xc2 c:/program files (x86)/microchip/xc32/v1.40/bin/bin/../../lib/gcc/pic32mx/4.8.3/../../../../pic32mx/lib\libc.a(sprintf_cdnopuxX.eo)
 .debug_info    0x0002399d       0xc0 c:/program files (x86)/microchip/xc32/v1.40/bin/bin/../../lib/gcc/pic32mx/4.8.3/../../../../pic32mx/lib\libc.a(vsnprintf_fF.eo)
 .debug_info    0x00023a5d       0xb4 c:/program files (x86)/microchip/xc32/v1.40/bin/bin/../../lib/gcc/pic32mx/4.8.3/../../../../pic32mx/lib\libc.a(_fputc_simple.o)
 .debug_info    0x00023b11       0xb7 c:/program files (x86)/microchip/xc32/v1.40/bin/bin/../../lib/gcc/pic32mx/4.8.3/../../../../pic32mx/lib\libc.a(_flsbuf_simple.o)
 .debug_info    0x00023bc8       0xae c:/program files (x86)/microchip/xc32/v1.40/bin/bin/../../lib/gcc/pic32mx/4.8.3/../../../../pic32mx/lib\libpic32.a(write.o)
 .debug_info    0x00023c76       0xb6 c:/program files (x86)/microchip/xc32/v1.40/bin/bin/../../lib/gcc/pic32mx/4.8.3/../../../../pic32mx/lib\libpic32.a(_mon_putc.o)
 .debug_info    0x00023d2c       0xcc c:/program files (x86)/microchip/xc32/v1.40/bin/bin/../../lib/gcc/pic32mx/4.8.3/../../../../pic32mx/lib\libe.a(_floatdisf.o)
 .debug_info    0x00023df8      0x74f c:/program files (x86)/microchip/xc32/v1.40/bin/bin/../../lib/gcc/pic32mx/4.8.3\libgcc.a(_udivdi3.o)
 .debug_info    0x00024547      0x78c c:/program files (x86)/microchip/xc32/v1.40/bin/bin/../../lib/gcc/pic32mx/4.8.3\libgcc.a(_umoddi3.o)
 .debug_info    0x00024cd3      0x11f c:/program files (x86)/microchip/xc32/v1.40/bin/bin/../../lib/gcc/pic32mx/4.8.3\libgcc.a(floatunsisf.o)
 .debug_info    0x00024df2       0xec c:/program files (x86)/microchip/xc32/v1.40/bin/bin/../../lib/gcc/pic32mx/4.8.3/../../../../pic32mx/lib\libc.a(doprnt_cdfFnopuxX.eo)

.debug_abbrev   0x00000000     0x392f
 *(.debug_abbrev)
 .debug_abbrev  0x00000000       0x28 c:/program files (x86)/microchip/xc32/v1.40/bin/bin/../../lib/gcc/pic32mx/4.8.3/../../../../pic32mx/lib\software-debug-break.o
 .debug_abbrev  0x00000028      0x160 build/configRover/debug/_ext/64793341/drv_oc_static.o
 .debug_abbrev  0x00000188      0x20a build/configRover/debug/_ext/1797679462/drv_tmr_static.o
 .debug_abbrev  0x00000392      0x229 build/configRover/debug/_ext/1532176561/drv_usart_static.o
 .debug_abbrev  0x000005bb      0x209 build/configRover/debug/_ext/249367850/sys_clk_static.o
 .debug_abbrev  0x000007c4      0x12f build/configRover/debug/_ext/1926720346/sys_ports_static.o
 .debug_abbrev  0x000008f3      0x2d5 build/configRover/debug/_ext/369138285/system_init.o
 .debug_abbrev  0x00000bc8      0x277 build/configRover/debug/_ext/369138285/system_interrupt.o
 .debug_abbrev  0x00000e3f       0x8c build/configRover/debug/_ext/369138285/system_exceptions.o
 .debug_abbrev  0x00000ecb      0x154 build/configRover/debug/_ext/369138285/system_tasks.o
 .debug_abbrev  0x0000101f       0x12 build/configRover/debug/_ext/369138285/system_interrupt_a.o
 .debug_abbrev  0x00001031       0x97 build/configRover/debug/_ext/369138285/rtos_hooks.o
 .debug_abbrev  0x000010c8      0x367 build/configRover/debug/_ext/1360937237/communication.o
 .debug_abbrev  0x0000142f      0x2b7 build/configRover/debug/_ext/1360937237/motor.o
 .debug_abbrev  0x000016e6       0x93 build/configRover/debug/_ext/1360937237/main.o
 .debug_abbrev  0x00001779      0x1fe build/configRover/debug/_ext/1879384925/osal_freertos.o
 .debug_abbrev  0x00001977      0x2a1 build/configRover/debug/_ext/351848739/sys_devcon.o
 .debug_abbrev  0x00001c18      0x16d build/configRover/debug/_ext/351848739/sys_devcon_pic32mx.o
 .debug_abbrev  0x00001d85      0x1ea build/configRover/debug/_ext/474818461/sys_int_pic32.o
 .debug_abbrev  0x00001f6f      0x219 build/configRover/debug/_ext/1139950406/sys_ports.o
 .debug_abbrev  0x00002188      0x13f build/configRover/debug/_ext/1818123999/heap_1.o
 .debug_abbrev  0x000022c7      0x2cf build/configRover/debug/_ext/1062886388/port.o
 .debug_abbrev  0x00002596       0x14 build/configRover/debug/_ext/1062886388/port_asm.o
 .debug_abbrev  0x000025aa      0x241 build/configRover/debug/_ext/184327166/croutine.o
 .debug_abbrev  0x000027eb       0xf1 build/configRover/debug/_ext/184327166/list.o
 .debug_abbrev  0x000028dc      0x2cf build/configRover/debug/_ext/184327166/queue.o
 .debug_abbrev  0x00002bab      0x2e6 build/configRover/debug/_ext/184327166/tasks.o
 .debug_abbrev  0x00002e91       0x1b build/configRover/debug/_ext/184327166/timers.o
 .debug_abbrev  0x00002eac      0x29a build/configRover/debug/_ext/184327166/event_groups.o
 .debug_abbrev  0x00003146      0x2d6 build/configRover/debug/_ext/1536116519/debug.o
 .debug_abbrev  0x0000341c       0x28 c:/program files (x86)/microchip/xc32/v1.40/bin/bin/../../lib/gcc/pic32mx/4.8.3/../../../../pic32mx/lib\libpic32.a(default-bootstrap-exception-handler.o)
 .debug_abbrev  0x00003444       0x28 c:/program files (x86)/microchip/xc32/v1.40/bin/bin/../../lib/gcc/pic32mx/4.8.3/../../../../pic32mx/lib\libpic32.a(default-on-reset.o)
 .debug_abbrev  0x0000346c       0x28 c:/program files (x86)/microchip/xc32/v1.40/bin/bin/../../lib/gcc/pic32mx/4.8.3/../../../../pic32mx/lib\libpic32.a(default-on-bootstrap.o)
 .debug_abbrev  0x00003494       0x28 c:/program files (x86)/microchip/xc32/v1.40/bin/bin/../../lib/gcc/pic32mx/4.8.3/../../../../pic32mx/lib\libpic32.a(defaultinterrupt.o)
 .debug_abbrev  0x000034bc       0x28 c:/program files (x86)/microchip/xc32/v1.40/bin/bin/../../lib/gcc/pic32mx/4.8.3/../../../../pic32mx/lib\libc.a(snprintf_fF.eo)
 .debug_abbrev  0x000034e4       0x28 c:/program files (x86)/microchip/xc32/v1.40/bin/bin/../../lib/gcc/pic32mx/4.8.3/../../../../pic32mx/lib\libc.a(sprintf_cdnopuxX.eo)
 .debug_abbrev  0x0000350c       0x28 c:/program files (x86)/microchip/xc32/v1.40/bin/bin/../../lib/gcc/pic32mx/4.8.3/../../../../pic32mx/lib\libc.a(vsnprintf_fF.eo)
 .debug_abbrev  0x00003534       0x28 c:/program files (x86)/microchip/xc32/v1.40/bin/bin/../../lib/gcc/pic32mx/4.8.3/../../../../pic32mx/lib\libc.a(_fputc_simple.o)
 .debug_abbrev  0x0000355c       0x28 c:/program files (x86)/microchip/xc32/v1.40/bin/bin/../../lib/gcc/pic32mx/4.8.3/../../../../pic32mx/lib\libc.a(_flsbuf_simple.o)
 .debug_abbrev  0x00003584       0x28 c:/program files (x86)/microchip/xc32/v1.40/bin/bin/../../lib/gcc/pic32mx/4.8.3/../../../../pic32mx/lib\libpic32.a(write.o)
 .debug_abbrev  0x000035ac       0x28 c:/program files (x86)/microchip/xc32/v1.40/bin/bin/../../lib/gcc/pic32mx/4.8.3/../../../../pic32mx/lib\libpic32.a(_mon_putc.o)
 .debug_abbrev  0x000035d4       0x35 c:/program files (x86)/microchip/xc32/v1.40/bin/bin/../../lib/gcc/pic32mx/4.8.3/../../../../pic32mx/lib\libe.a(_floatdisf.o)
 .debug_abbrev  0x00003609      0x138 c:/program files (x86)/microchip/xc32/v1.40/bin/bin/../../lib/gcc/pic32mx/4.8.3\libgcc.a(_udivdi3.o)
 .debug_abbrev  0x00003741      0x147 c:/program files (x86)/microchip/xc32/v1.40/bin/bin/../../lib/gcc/pic32mx/4.8.3\libgcc.a(_umoddi3.o)
 .debug_abbrev  0x00003888       0x62 c:/program files (x86)/microchip/xc32/v1.40/bin/bin/../../lib/gcc/pic32mx/4.8.3\libgcc.a(floatunsisf.o)
 .debug_abbrev  0x000038ea       0x45 c:/program files (x86)/microchip/xc32/v1.40/bin/bin/../../lib/gcc/pic32mx/4.8.3/../../../../pic32mx/lib\libc.a(doprnt_cdfFnopuxX.eo)

.debug_line     0x00000000     0x7763
 *(.debug_line)
 .debug_line    0x00000000       0x8a c:/program files (x86)/microchip/xc32/v1.40/bin/bin/../../lib/gcc/pic32mx/4.8.3/../../../../pic32mx/lib\software-debug-break.o
 .debug_line    0x0000008a      0x422 build/configRover/debug/_ext/64793341/drv_oc_static.o
 .debug_line    0x000004ac      0x657 build/configRover/debug/_ext/1797679462/drv_tmr_static.o
 .debug_line    0x00000b03      0x69b build/configRover/debug/_ext/1532176561/drv_usart_static.o
 .debug_line    0x0000119e      0x369 build/configRover/debug/_ext/249367850/sys_clk_static.o
 .debug_line    0x00001507      0x2c6 build/configRover/debug/_ext/1926720346/sys_ports_static.o
 .debug_line    0x000017cd      0x5c2 build/configRover/debug/_ext/369138285/system_init.o
 .debug_line    0x00001d8f      0x4db build/configRover/debug/_ext/369138285/system_interrupt.o
 .debug_line    0x0000226a       0xe0 build/configRover/debug/_ext/369138285/system_exceptions.o
 .debug_line    0x0000234a      0x30c build/configRover/debug/_ext/369138285/system_tasks.o
 .debug_line    0x00002656      0x1a5 build/configRover/debug/_ext/369138285/system_interrupt_a.o
 .debug_line    0x000027fb      0x134 build/configRover/debug/_ext/369138285/rtos_hooks.o
 .debug_line    0x0000292f      0x6ce build/configRover/debug/_ext/1360937237/communication.o
 .debug_line    0x00002ffd      0x57c build/configRover/debug/_ext/1360937237/motor.o
 .debug_line    0x00003579       0xa5 build/configRover/debug/_ext/1360937237/main.o
 .debug_line    0x0000361e      0x2bb build/configRover/debug/_ext/1879384925/osal_freertos.o
 .debug_line    0x000038d9      0x5c6 build/configRover/debug/_ext/351848739/sys_devcon.o
 .debug_line    0x00003e9f      0x471 build/configRover/debug/_ext/351848739/sys_devcon_pic32mx.o
 .debug_line    0x00004310      0x38c build/configRover/debug/_ext/474818461/sys_int_pic32.o
 .debug_line    0x0000469c      0x870 build/configRover/debug/_ext/1139950406/sys_ports.o
 .debug_line    0x00004f0c      0x216 build/configRover/debug/_ext/1818123999/heap_1.o
 .debug_line    0x00005122      0x23a build/configRover/debug/_ext/1062886388/port.o
 .debug_line    0x0000535c      0x11a build/configRover/debug/_ext/1062886388/port_asm.o
 .debug_line    0x00005476      0x2d1 build/configRover/debug/_ext/184327166/croutine.o
 .debug_line    0x00005747      0x1dc build/configRover/debug/_ext/184327166/list.o
 .debug_line    0x00005923      0x488 build/configRover/debug/_ext/184327166/queue.o
 .debug_line    0x00005dab      0x801 build/configRover/debug/_ext/184327166/tasks.o
 .debug_line    0x000065ac       0x1d build/configRover/debug/_ext/184327166/timers.o
 .debug_line    0x000065c9      0x321 build/configRover/debug/_ext/184327166/event_groups.o
 .debug_line    0x000068ea      0x59c build/configRover/debug/_ext/1536116519/debug.o
 .debug_line    0x00006e86        0x0 build/configRover/debug/_ext/1360937237/timer.o
 .debug_line    0x00006e86       0x97 c:/program files (x86)/microchip/xc32/v1.40/bin/bin/../../lib/gcc/pic32mx/4.8.3/../../../../pic32mx/lib\libpic32.a(default-bootstrap-exception-handler.o)
 .debug_line    0x00006f1d       0x84 c:/program files (x86)/microchip/xc32/v1.40/bin/bin/../../lib/gcc/pic32mx/4.8.3/../../../../pic32mx/lib\libpic32.a(default-on-reset.o)
 .debug_line    0x00006fa1       0x88 c:/program files (x86)/microchip/xc32/v1.40/bin/bin/../../lib/gcc/pic32mx/4.8.3/../../../../pic32mx/lib\libpic32.a(default-on-bootstrap.o)
 .debug_line    0x00007029       0x96 c:/program files (x86)/microchip/xc32/v1.40/bin/bin/../../lib/gcc/pic32mx/4.8.3/../../../../pic32mx/lib\libpic32.a(defaultinterrupt.o)
 .debug_line    0x000070bf       0x72 c:/program files (x86)/microchip/xc32/v1.40/bin/bin/../../lib/gcc/pic32mx/4.8.3/../../../../pic32mx/lib\libc.a(snprintf_fF.eo)
 .debug_line    0x00007131       0x71 c:/program files (x86)/microchip/xc32/v1.40/bin/bin/../../lib/gcc/pic32mx/4.8.3/../../../../pic32mx/lib\libc.a(sprintf_cdnopuxX.eo)
 .debug_line    0x000071a2       0x73 c:/program files (x86)/microchip/xc32/v1.40/bin/bin/../../lib/gcc/pic32mx/4.8.3/../../../../pic32mx/lib\libc.a(vsnprintf_fF.eo)
 .debug_line    0x00007215       0x6f c:/program files (x86)/microchip/xc32/v1.40/bin/bin/../../lib/gcc/pic32mx/4.8.3/../../../../pic32mx/lib\libc.a(_fputc_simple.o)
 .debug_line    0x00007284        0x0 c:/program files (x86)/microchip/xc32/v1.40/bin/bin/../../lib/gcc/pic32mx/4.8.3/../../../../pic32mx/lib\libc.a(ctype.o)
 .debug_line    0x00007284        0x0 c:/program files (x86)/microchip/xc32/v1.40/bin/bin/../../lib/gcc/pic32mx/4.8.3/../../../../pic32mx/lib\libc.a(powersf.o)
 .debug_line    0x00007284        0x0 c:/program files (x86)/microchip/xc32/v1.40/bin/bin/../../lib/gcc/pic32mx/4.8.3/../../../../pic32mx/lib\libc.a(_iob.o)
 .debug_line    0x00007284       0x70 c:/program files (x86)/microchip/xc32/v1.40/bin/bin/../../lib/gcc/pic32mx/4.8.3/../../../../pic32mx/lib\libc.a(_flsbuf_simple.o)
 .debug_line    0x000072f4       0x79 c:/program files (x86)/microchip/xc32/v1.40/bin/bin/../../lib/gcc/pic32mx/4.8.3/../../../../pic32mx/lib\libpic32.a(write.o)
 .debug_line    0x0000736d       0x7d c:/program files (x86)/microchip/xc32/v1.40/bin/bin/../../lib/gcc/pic32mx/4.8.3/../../../../pic32mx/lib\libpic32.a(_mon_putc.o)
 .debug_line    0x000073ea        0x0 c:/program files (x86)/microchip/xc32/v1.40/bin/bin/../../lib/gcc/pic32mx/4.8.3/../../../../pic32mx/lib\libpic32.a(xc32_uart.o)
 .debug_line    0x000073ea       0x93 c:/program files (x86)/microchip/xc32/v1.40/bin/bin/../../lib/gcc/pic32mx/4.8.3/../../../../pic32mx/lib\libe.a(_floatdisf.o)
 .debug_line    0x0000747d       0xed c:/program files (x86)/microchip/xc32/v1.40/bin/bin/../../lib/gcc/pic32mx/4.8.3\libgcc.a(_udivdi3.o)
 .debug_line    0x0000756a       0xff c:/program files (x86)/microchip/xc32/v1.40/bin/bin/../../lib/gcc/pic32mx/4.8.3\libgcc.a(_umoddi3.o)
 .debug_line    0x00007669       0x8a c:/program files (x86)/microchip/xc32/v1.40/bin/bin/../../lib/gcc/pic32mx/4.8.3\libgcc.a(floatunsisf.o)
 .debug_line    0x000076f3       0x70 c:/program files (x86)/microchip/xc32/v1.40/bin/bin/../../lib/gcc/pic32mx/4.8.3/../../../../pic32mx/lib\libc.a(doprnt_cdfFnopuxX.eo)

.debug_frame    0x00000000     0x1a8c
 *(.debug_frame)
 .debug_frame   0x00000000       0x20 c:/program files (x86)/microchip/xc32/v1.40/bin/bin/../../lib/gcc/pic32mx/4.8.3/../../../../pic32mx/lib\software-debug-break.o
 .debug_frame   0x00000020       0xd0 build/configRover/debug/_ext/64793341/drv_oc_static.o
 .debug_frame   0x000000f0      0x190 build/configRover/debug/_ext/1797679462/drv_tmr_static.o
 .debug_frame   0x00000280       0x80 build/configRover/debug/_ext/1532176561/drv_usart_static.o
 .debug_frame   0x00000300       0x58 build/configRover/debug/_ext/249367850/sys_clk_static.o
 .debug_frame   0x00000358       0x20 build/configRover/debug/_ext/1926720346/sys_ports_static.o
 .debug_frame   0x00000378       0x30 build/configRover/debug/_ext/369138285/system_init.o
 .debug_frame   0x000003a8       0xc8 build/configRover/debug/_ext/369138285/system_interrupt.o
 .debug_frame   0x00000470       0x28 build/configRover/debug/_ext/369138285/system_exceptions.o
 .debug_frame   0x00000498       0x70 build/configRover/debug/_ext/369138285/system_tasks.o
 .debug_frame   0x00000508       0x40 build/configRover/debug/_ext/369138285/rtos_hooks.o
 .debug_frame   0x00000548      0x16c build/configRover/debug/_ext/1360937237/communication.o
 .debug_frame   0x000006b4      0x100 build/configRover/debug/_ext/1360937237/motor.o
 .debug_frame   0x000007b4       0x28 build/configRover/debug/_ext/1360937237/main.o
 .debug_frame   0x000007dc      0x150 build/configRover/debug/_ext/1879384925/osal_freertos.o
 .debug_frame   0x0000092c       0xe8 build/configRover/debug/_ext/351848739/sys_devcon.o
 .debug_frame   0x00000a14       0x28 build/configRover/debug/_ext/351848739/sys_devcon_pic32mx.o
 .debug_frame   0x00000a3c       0x90 build/configRover/debug/_ext/474818461/sys_int_pic32.o
 .debug_frame   0x00000acc      0x1d0 build/configRover/debug/_ext/1139950406/sys_ports.o
 .debug_frame   0x00000c9c       0x5c build/configRover/debug/_ext/1818123999/heap_1.o
 .debug_frame   0x00000cf8       0xc0 build/configRover/debug/_ext/1062886388/port.o
 .debug_frame   0x00000db8       0xe8 build/configRover/debug/_ext/184327166/croutine.o
 .debug_frame   0x00000ea0       0x60 build/configRover/debug/_ext/184327166/list.o
 .debug_frame   0x00000f00      0x214 build/configRover/debug/_ext/184327166/queue.o
 .debug_frame   0x00001114      0x4a8 build/configRover/debug/_ext/184327166/tasks.o
 .debug_frame   0x000015bc      0x108 build/configRover/debug/_ext/184327166/event_groups.o
 .debug_frame   0x000016c4      0x12c build/configRover/debug/_ext/1536116519/debug.o
 .debug_frame   0x000017f0       0x2c c:/program files (x86)/microchip/xc32/v1.40/bin/bin/../../lib/gcc/pic32mx/4.8.3/../../../../pic32mx/lib\libpic32.a(default-bootstrap-exception-handler.o)
 .debug_frame   0x0000181c       0x20 c:/program files (x86)/microchip/xc32/v1.40/bin/bin/../../lib/gcc/pic32mx/4.8.3/../../../../pic32mx/lib\libpic32.a(default-on-reset.o)
 .debug_frame   0x0000183c       0x20 c:/program files (x86)/microchip/xc32/v1.40/bin/bin/../../lib/gcc/pic32mx/4.8.3/../../../../pic32mx/lib\libpic32.a(default-on-bootstrap.o)
 .debug_frame   0x0000185c       0x20 c:/program files (x86)/microchip/xc32/v1.40/bin/bin/../../lib/gcc/pic32mx/4.8.3/../../../../pic32mx/lib\libpic32.a(defaultinterrupt.o)
 .debug_frame   0x0000187c       0x28 c:/program files (x86)/microchip/xc32/v1.40/bin/bin/../../lib/gcc/pic32mx/4.8.3/../../../../pic32mx/lib\libc.a(snprintf_fF.eo)
 .debug_frame   0x000018a4       0x28 c:/program files (x86)/microchip/xc32/v1.40/bin/bin/../../lib/gcc/pic32mx/4.8.3/../../../../pic32mx/lib\libc.a(sprintf_cdnopuxX.eo)
 .debug_frame   0x000018cc       0x2c c:/program files (x86)/microchip/xc32/v1.40/bin/bin/../../lib/gcc/pic32mx/4.8.3/../../../../pic32mx/lib\libc.a(vsnprintf_fF.eo)
 .debug_frame   0x000018f8       0x2c c:/program files (x86)/microchip/xc32/v1.40/bin/bin/../../lib/gcc/pic32mx/4.8.3/../../../../pic32mx/lib\libc.a(_fputc_simple.o)
 .debug_frame   0x00001924       0x28 c:/program files (x86)/microchip/xc32/v1.40/bin/bin/../../lib/gcc/pic32mx/4.8.3/../../../../pic32mx/lib\libc.a(_flsbuf_simple.o)
 .debug_frame   0x0000194c       0x38 c:/program files (x86)/microchip/xc32/v1.40/bin/bin/../../lib/gcc/pic32mx/4.8.3/../../../../pic32mx/lib\libpic32.a(write.o)
 .debug_frame   0x00001984       0x28 c:/program files (x86)/microchip/xc32/v1.40/bin/bin/../../lib/gcc/pic32mx/4.8.3/../../../../pic32mx/lib\libpic32.a(_mon_putc.o)
 .debug_frame   0x000019ac       0x20 c:/program files (x86)/microchip/xc32/v1.40/bin/bin/../../lib/gcc/pic32mx/4.8.3/../../../../pic32mx/lib\libe.a(_floatdisf.o)
 .debug_frame   0x000019cc       0x20 c:/program files (x86)/microchip/xc32/v1.40/bin/bin/../../lib/gcc/pic32mx/4.8.3\libgcc.a(_udivdi3.o)
 .debug_frame   0x000019ec       0x20 c:/program files (x86)/microchip/xc32/v1.40/bin/bin/../../lib/gcc/pic32mx/4.8.3\libgcc.a(_umoddi3.o)
 .debug_frame   0x00001a0c       0x28 c:/program files (x86)/microchip/xc32/v1.40/bin/bin/../../lib/gcc/pic32mx/4.8.3\libgcc.a(floatunsisf.o)
 .debug_frame   0x00001a34       0x58 c:/program files (x86)/microchip/xc32/v1.40/bin/bin/../../lib/gcc/pic32mx/4.8.3/../../../../pic32mx/lib\libc.a(doprnt_cdfFnopuxX.eo)

.debug_str      0x00000000      0x76b
 *(.debug_str)
 .debug_str     0x00000000        0x0 c:/program files (x86)/microchip/xc32/v1.40/bin/bin/../../lib/gcc/pic32mx/4.8.3/../../../../pic32mx/lib\software-debug-break.o
 .debug_str     0x00000000       0x1a build/configRover/debug/_ext/64793341/drv_oc_static.o
 .debug_str     0x0000001a       0x35 build/configRover/debug/_ext/1797679462/drv_tmr_static.o
 .debug_str     0x0000004f       0x7c build/configRover/debug/_ext/1532176561/drv_usart_static.o
 .debug_str     0x000000cb       0x39 build/configRover/debug/_ext/249367850/sys_clk_static.o
 .debug_str     0x00000104        0xd build/configRover/debug/_ext/1926720346/sys_ports_static.o
 .debug_str     0x00000111       0x35 build/configRover/debug/_ext/369138285/system_init.o
 .debug_str     0x00000146       0x41 build/configRover/debug/_ext/369138285/system_interrupt.o
 .debug_str     0x00000187        0x0 build/configRover/debug/_ext/369138285/system_exceptions.o
 .debug_str     0x00000187        0x0 build/configRover/debug/_ext/369138285/system_tasks.o
 .debug_str     0x00000187        0x9 build/configRover/debug/_ext/369138285/rtos_hooks.o
 .debug_str     0x00000190       0x65 build/configRover/debug/_ext/1360937237/communication.o
 .debug_str     0x000001f5       0x2a build/configRover/debug/_ext/1360937237/motor.o
 .debug_str     0x0000021f        0x0 build/configRover/debug/_ext/1360937237/main.o
 .debug_str     0x0000021f       0x40 build/configRover/debug/_ext/1879384925/osal_freertos.o
 .debug_str     0x0000025f       0x16 build/configRover/debug/_ext/351848739/sys_devcon.o
 .debug_str     0x00000275        0x6 build/configRover/debug/_ext/351848739/sys_devcon_pic32mx.o
 .debug_str     0x0000027b       0x2d build/configRover/debug/_ext/474818461/sys_int_pic32.o
 .debug_str     0x000002a8       0x98 build/configRover/debug/_ext/1139950406/sys_ports.o
 .debug_str     0x00000340       0x1d build/configRover/debug/_ext/1818123999/heap_1.o
 .debug_str     0x0000035d       0x37 build/configRover/debug/_ext/1062886388/port.o
 .debug_str     0x00000394       0x46 build/configRover/debug/_ext/184327166/croutine.o
 .debug_str     0x000003da       0x2b build/configRover/debug/_ext/184327166/list.o
 .debug_str     0x00000405       0xf1 build/configRover/debug/_ext/184327166/queue.o
 .debug_str     0x000004f6      0x174 build/configRover/debug/_ext/184327166/tasks.o
 .debug_str     0x0000066a        0x0 build/configRover/debug/_ext/184327166/timers.o
 .debug_str     0x0000066a       0xe6 build/configRover/debug/_ext/184327166/event_groups.o
 .debug_str     0x00000750       0x1b build/configRover/debug/_ext/1536116519/debug.o
 .debug_str     0x0000076b        0x0 build/configRover/debug/_ext/1360937237/timer.o
 .debug_str     0x0000076b        0x0 c:/program files (x86)/microchip/xc32/v1.40/bin/bin/../../lib/gcc/pic32mx/4.8.3/../../../../pic32mx/lib\libpic32.a(default-bootstrap-exception-handler.o)
 .debug_str     0x0000076b        0x0 c:/program files (x86)/microchip/xc32/v1.40/bin/bin/../../lib/gcc/pic32mx/4.8.3/../../../../pic32mx/lib\libpic32.a(default-on-reset.o)
 .debug_str     0x0000076b        0x0 c:/program files (x86)/microchip/xc32/v1.40/bin/bin/../../lib/gcc/pic32mx/4.8.3/../../../../pic32mx/lib\libpic32.a(default-on-bootstrap.o)
 .debug_str     0x0000076b        0x0 c:/program files (x86)/microchip/xc32/v1.40/bin/bin/../../lib/gcc/pic32mx/4.8.3/../../../../pic32mx/lib\libpic32.a(defaultinterrupt.o)
 .debug_str     0x0000076b        0x0 c:/program files (x86)/microchip/xc32/v1.40/bin/bin/../../lib/gcc/pic32mx/4.8.3/../../../../pic32mx/lib\libc.a(snprintf_fF.eo)
 .debug_str     0x0000076b        0x0 c:/program files (x86)/microchip/xc32/v1.40/bin/bin/../../lib/gcc/pic32mx/4.8.3/../../../../pic32mx/lib\libc.a(sprintf_cdnopuxX.eo)
 .debug_str     0x0000076b        0x0 c:/program files (x86)/microchip/xc32/v1.40/bin/bin/../../lib/gcc/pic32mx/4.8.3/../../../../pic32mx/lib\libc.a(vsnprintf_fF.eo)
 .debug_str     0x0000076b        0x0 c:/program files (x86)/microchip/xc32/v1.40/bin/bin/../../lib/gcc/pic32mx/4.8.3/../../../../pic32mx/lib\libc.a(_fputc_simple.o)
 .debug_str     0x0000076b        0x0 c:/program files (x86)/microchip/xc32/v1.40/bin/bin/../../lib/gcc/pic32mx/4.8.3/../../../../pic32mx/lib\libc.a(ctype.o)
 .debug_str     0x0000076b        0x0 c:/program files (x86)/microchip/xc32/v1.40/bin/bin/../../lib/gcc/pic32mx/4.8.3/../../../../pic32mx/lib\libc.a(powersf.o)
 .debug_str     0x0000076b        0x0 c:/program files (x86)/microchip/xc32/v1.40/bin/bin/../../lib/gcc/pic32mx/4.8.3/../../../../pic32mx/lib\libc.a(_iob.o)
 .debug_str     0x0000076b        0x0 c:/program files (x86)/microchip/xc32/v1.40/bin/bin/../../lib/gcc/pic32mx/4.8.3/../../../../pic32mx/lib\libc.a(_flsbuf_simple.o)
 .debug_str     0x0000076b        0x0 c:/program files (x86)/microchip/xc32/v1.40/bin/bin/../../lib/gcc/pic32mx/4.8.3/../../../../pic32mx/lib\libpic32.a(write.o)
 .debug_str     0x0000076b        0x0 c:/program files (x86)/microchip/xc32/v1.40/bin/bin/../../lib/gcc/pic32mx/4.8.3/../../../../pic32mx/lib\libpic32.a(_mon_putc.o)
 .debug_str     0x0000076b        0x0 c:/program files (x86)/microchip/xc32/v1.40/bin/bin/../../lib/gcc/pic32mx/4.8.3/../../../../pic32mx/lib\libpic32.a(xc32_uart.o)
 .debug_str     0x0000076b        0x0 c:/program files (x86)/microchip/xc32/v1.40/bin/bin/../../lib/gcc/pic32mx/4.8.3/../../../../pic32mx/lib\libe.a(_floatdisf.o)
 .debug_str     0x0000076b        0x0 c:/program files (x86)/microchip/xc32/v1.40/bin/bin/../../lib/gcc/pic32mx/4.8.3\libgcc.a(_udivdi3.o)
 .debug_str     0x0000076b        0x0 c:/program files (x86)/microchip/xc32/v1.40/bin/bin/../../lib/gcc/pic32mx/4.8.3\libgcc.a(_umoddi3.o)
 .debug_str     0x0000076b        0x0 c:/program files (x86)/microchip/xc32/v1.40/bin/bin/../../lib/gcc/pic32mx/4.8.3\libgcc.a(floatunsisf.o)
 .debug_str     0x0000076b        0x0 c:/program files (x86)/microchip/xc32/v1.40/bin/bin/../../lib/gcc/pic32mx/4.8.3/../../../../pic32mx/lib\libc.a(doprnt_cdfFnopuxX.eo)

.debug_loc      0x00000000     0x770a
 *(.debug_loc)
 .debug_loc     0x00000000       0x84 build/configRover/debug/_ext/1797679462/drv_tmr_static.o
 .debug_loc     0x00000084       0xa0 build/configRover/debug/_ext/1532176561/drv_usart_static.o
 .debug_loc     0x00000124       0x41 build/configRover/debug/_ext/249367850/sys_clk_static.o
 .debug_loc     0x00000165       0x41 build/configRover/debug/_ext/369138285/system_init.o
 .debug_loc     0x000001a6      0x226 build/configRover/debug/_ext/369138285/system_interrupt.o
 .debug_loc     0x000003cc       0x20 build/configRover/debug/_ext/369138285/system_exceptions.o
 .debug_loc     0x000003ec       0x80 build/configRover/debug/_ext/369138285/system_tasks.o
 .debug_loc     0x0000046c       0x74 build/configRover/debug/_ext/369138285/rtos_hooks.o
 .debug_loc     0x000004e0      0x7ed build/configRover/debug/_ext/1360937237/communication.o
 .debug_loc     0x00000ccd      0x36c build/configRover/debug/_ext/1360937237/motor.o
 .debug_loc     0x00001039       0x20 build/configRover/debug/_ext/1360937237/main.o
 .debug_loc     0x00001059      0x54c build/configRover/debug/_ext/1879384925/osal_freertos.o
 .debug_loc     0x000015a5      0x150 build/configRover/debug/_ext/351848739/sys_devcon.o
 .debug_loc     0x000016f5      0x100 build/configRover/debug/_ext/351848739/sys_devcon_pic32mx.o
 .debug_loc     0x000017f5      0x10d build/configRover/debug/_ext/474818461/sys_int_pic32.o
 .debug_loc     0x00001902      0xee1 build/configRover/debug/_ext/1139950406/sys_ports.o
 .debug_loc     0x000027e3       0x69 build/configRover/debug/_ext/1818123999/heap_1.o
 .debug_loc     0x0000284c      0x1aa build/configRover/debug/_ext/1062886388/port.o
 .debug_loc     0x000029f6      0x410 build/configRover/debug/_ext/184327166/croutine.o
 .debug_loc     0x00002e06       0x31 build/configRover/debug/_ext/184327166/list.o
 .debug_loc     0x00002e37      0xeba build/configRover/debug/_ext/184327166/queue.o
 .debug_loc     0x00003cf1     0x18a6 build/configRover/debug/_ext/184327166/tasks.o
 .debug_loc     0x00005597      0xa0a build/configRover/debug/_ext/184327166/event_groups.o
 .debug_loc     0x00005fa1      0x24e build/configRover/debug/_ext/1536116519/debug.o
 .debug_loc     0x000061ef      0xa6a c:/program files (x86)/microchip/xc32/v1.40/bin/bin/../../lib/gcc/pic32mx/4.8.3\libgcc.a(_udivdi3.o)
 .debug_loc     0x00006c59      0xa3d c:/program files (x86)/microchip/xc32/v1.40/bin/bin/../../lib/gcc/pic32mx/4.8.3\libgcc.a(_umoddi3.o)
 .debug_loc     0x00007696       0x74 c:/program files (x86)/microchip/xc32/v1.40/bin/bin/../../lib/gcc/pic32mx/4.8.3\libgcc.a(floatunsisf.o)

.debug_macinfo
 *(.debug_macinfo)

.debug_weaknames
 *(.debug_weaknames)

.debug_funcnames
 *(.debug_funcnames)

.debug_typenames
 *(.debug_typenames)

.debug_varnames
 *(.debug_varnames)

.debug_pubtypes
 *(.debug_pubtypes)

.debug_ranges   0x00000000      0xdb8
 *(.debug_ranges)
 .debug_ranges  0x00000000       0x10 c:/program files (x86)/microchip/xc32/v1.40/bin/bin/../../lib/gcc/pic32mx/4.8.3/../../../../pic32mx/lib\software-debug-break.o
 .debug_ranges  0x00000010       0x68 build/configRover/debug/_ext/64793341/drv_oc_static.o
 .debug_ranges  0x00000078       0xc8 build/configRover/debug/_ext/1797679462/drv_tmr_static.o
 .debug_ranges  0x00000140       0x38 build/configRover/debug/_ext/1532176561/drv_usart_static.o
 .debug_ranges  0x00000178       0x28 build/configRover/debug/_ext/249367850/sys_clk_static.o
 .debug_ranges  0x000001a0       0x10 build/configRover/debug/_ext/1926720346/sys_ports_static.o
 .debug_ranges  0x000001b0       0x10 build/configRover/debug/_ext/369138285/system_init.o
 .debug_ranges  0x000001c0       0x90 build/configRover/debug/_ext/369138285/system_interrupt.o
 .debug_ranges  0x00000250       0x10 build/configRover/debug/_ext/369138285/system_exceptions.o
 .debug_ranges  0x00000260       0x28 build/configRover/debug/_ext/369138285/system_tasks.o
 .debug_ranges  0x00000288       0x90 build/configRover/debug/_ext/369138285/system_interrupt_a.o
 .debug_ranges  0x00000318       0x18 build/configRover/debug/_ext/369138285/rtos_hooks.o
 .debug_ranges  0x00000330      0x110 build/configRover/debug/_ext/1360937237/communication.o
 .debug_ranges  0x00000440       0x90 build/configRover/debug/_ext/1360937237/motor.o
 .debug_ranges  0x000004d0       0x10 build/configRover/debug/_ext/1360937237/main.o
 .debug_ranges  0x000004e0       0x78 build/configRover/debug/_ext/1879384925/osal_freertos.o
 .debug_ranges  0x00000558       0x68 build/configRover/debug/_ext/351848739/sys_devcon.o
 .debug_ranges  0x000005c0       0x10 build/configRover/debug/_ext/351848739/sys_devcon_pic32mx.o
 .debug_ranges  0x000005d0       0x50 build/configRover/debug/_ext/474818461/sys_int_pic32.o
 .debug_ranges  0x00000620       0xe8 build/configRover/debug/_ext/1139950406/sys_ports.o
 .debug_ranges  0x00000708       0x28 build/configRover/debug/_ext/1818123999/heap_1.o
 .debug_ranges  0x00000730       0x48 build/configRover/debug/_ext/1062886388/port.o
 .debug_ranges  0x00000778       0x70 build/configRover/debug/_ext/184327166/croutine.o
 .debug_ranges  0x000007e8       0x30 build/configRover/debug/_ext/184327166/list.o
 .debug_ranges  0x00000818       0xa0 build/configRover/debug/_ext/184327166/queue.o
 .debug_ranges  0x000008b8      0x198 build/configRover/debug/_ext/184327166/tasks.o
 .debug_ranges  0x00000a50       0x98 build/configRover/debug/_ext/184327166/event_groups.o
 .debug_ranges  0x00000ae8       0x88 build/configRover/debug/_ext/1536116519/debug.o
 .debug_ranges  0x00000b70       0x10 c:/program files (x86)/microchip/xc32/v1.40/bin/bin/../../lib/gcc/pic32mx/4.8.3/../../../../pic32mx/lib\libpic32.a(default-bootstrap-exception-handler.o)
 .debug_ranges  0x00000b80       0x10 c:/program files (x86)/microchip/xc32/v1.40/bin/bin/../../lib/gcc/pic32mx/4.8.3/../../../../pic32mx/lib\libpic32.a(default-on-reset.o)
 .debug_ranges  0x00000b90       0x10 c:/program files (x86)/microchip/xc32/v1.40/bin/bin/../../lib/gcc/pic32mx/4.8.3/../../../../pic32mx/lib\libpic32.a(default-on-bootstrap.o)
 .debug_ranges  0x00000ba0       0x10 c:/program files (x86)/microchip/xc32/v1.40/bin/bin/../../lib/gcc/pic32mx/4.8.3/../../../../pic32mx/lib\libpic32.a(defaultinterrupt.o)
 .debug_ranges  0x00000bb0       0x10 c:/program files (x86)/microchip/xc32/v1.40/bin/bin/../../lib/gcc/pic32mx/4.8.3/../../../../pic32mx/lib\libc.a(snprintf_fF.eo)
 .debug_ranges  0x00000bc0       0x10 c:/program files (x86)/microchip/xc32/v1.40/bin/bin/../../lib/gcc/pic32mx/4.8.3/../../../../pic32mx/lib\libc.a(sprintf_cdnopuxX.eo)
 .debug_ranges  0x00000bd0       0x10 c:/program files (x86)/microchip/xc32/v1.40/bin/bin/../../lib/gcc/pic32mx/4.8.3/../../../../pic32mx/lib\libc.a(vsnprintf_fF.eo)
 .debug_ranges  0x00000be0       0x10 c:/program files (x86)/microchip/xc32/v1.40/bin/bin/../../lib/gcc/pic32mx/4.8.3/../../../../pic32mx/lib\libc.a(_fputc_simple.o)
 .debug_ranges  0x00000bf0       0x10 c:/program files (x86)/microchip/xc32/v1.40/bin/bin/../../lib/gcc/pic32mx/4.8.3/../../../../pic32mx/lib\libc.a(_flsbuf_simple.o)
 .debug_ranges  0x00000c00       0x10 c:/program files (x86)/microchip/xc32/v1.40/bin/bin/../../lib/gcc/pic32mx/4.8.3/../../../../pic32mx/lib\libpic32.a(write.o)
 .debug_ranges  0x00000c10       0x10 c:/program files (x86)/microchip/xc32/v1.40/bin/bin/../../lib/gcc/pic32mx/4.8.3/../../../../pic32mx/lib\libpic32.a(_mon_putc.o)
 .debug_ranges  0x00000c20       0x10 c:/program files (x86)/microchip/xc32/v1.40/bin/bin/../../lib/gcc/pic32mx/4.8.3/../../../../pic32mx/lib\libe.a(_floatdisf.o)
 .debug_ranges  0x00000c30       0x98 c:/program files (x86)/microchip/xc32/v1.40/bin/bin/../../lib/gcc/pic32mx/4.8.3\libgcc.a(_udivdi3.o)
 .debug_ranges  0x00000cc8       0xd8 c:/program files (x86)/microchip/xc32/v1.40/bin/bin/../../lib/gcc/pic32mx/4.8.3\libgcc.a(_umoddi3.o)
 .debug_ranges  0x00000da0       0x18 c:/program files (x86)/microchip/xc32/v1.40/bin/bin/../../lib/gcc/pic32mx/4.8.3/../../../../pic32mx/lib\libc.a(doprnt_cdfFnopuxX.eo)

.gnu.attributes
                0x00000000       0x10
 *(.gnu.attributes)
 .gnu.attributes
                0x00000000       0x10 c:/program files (x86)/microchip/xc32/v1.40/bin/bin/../../lib/gcc/pic32mx/4.8.3/../../../../pic32mx/lib\software-debug-break.o
 .gnu.attributes
                0x00000010       0x10 build/configRover/debug/_ext/64793341/drv_oc_static.o
 .gnu.attributes
                0x00000020       0x10 build/configRover/debug/_ext/1797679462/drv_tmr_static.o
 .gnu.attributes
                0x00000030       0x10 build/configRover/debug/_ext/1532176561/drv_usart_static.o
 .gnu.attributes
                0x00000040       0x10 build/configRover/debug/_ext/249367850/sys_clk_static.o
 .gnu.attributes
                0x00000050       0x10 build/configRover/debug/_ext/1926720346/sys_ports_static.o
 .gnu.attributes
                0x00000060       0x10 build/configRover/debug/_ext/369138285/system_init.o
 .gnu.attributes
                0x00000070       0x10 build/configRover/debug/_ext/369138285/system_interrupt.o
 .gnu.attributes
                0x00000080       0x10 build/configRover/debug/_ext/369138285/system_exceptions.o
 .gnu.attributes
                0x00000090       0x10 build/configRover/debug/_ext/369138285/system_tasks.o
 .gnu.attributes
                0x000000a0       0x10 build/configRover/debug/_ext/369138285/rtos_hooks.o
 .gnu.attributes
                0x000000b0       0x10 build/configRover/debug/_ext/1360937237/communication.o
 .gnu.attributes
                0x000000c0       0x10 build/configRover/debug/_ext/1360937237/motor.o
 .gnu.attributes
                0x000000d0       0x10 build/configRover/debug/_ext/1360937237/main.o
 .gnu.attributes
                0x000000e0       0x10 build/configRover/debug/_ext/1879384925/osal_freertos.o
 .gnu.attributes
                0x000000f0       0x10 build/configRover/debug/_ext/351848739/sys_devcon.o
 .gnu.attributes
                0x00000100       0x10 build/configRover/debug/_ext/351848739/sys_devcon_pic32mx.o
 .gnu.attributes
                0x00000110       0x10 build/configRover/debug/_ext/474818461/sys_int_pic32.o
 .gnu.attributes
                0x00000120       0x10 build/configRover/debug/_ext/1139950406/sys_ports.o
 .gnu.attributes
                0x00000130       0x10 build/configRover/debug/_ext/1818123999/heap_1.o
 .gnu.attributes
                0x00000140       0x10 build/configRover/debug/_ext/1062886388/port.o
 .gnu.attributes
                0x00000150       0x10 build/configRover/debug/_ext/184327166/croutine.o
 .gnu.attributes
                0x00000160       0x10 build/configRover/debug/_ext/184327166/list.o
 .gnu.attributes
                0x00000170       0x10 build/configRover/debug/_ext/184327166/queue.o
 .gnu.attributes
                0x00000180       0x10 build/configRover/debug/_ext/184327166/tasks.o
 .gnu.attributes
                0x00000190       0x10 build/configRover/debug/_ext/184327166/timers.o
 .gnu.attributes
                0x000001a0       0x10 build/configRover/debug/_ext/184327166/event_groups.o
 .gnu.attributes
                0x000001b0       0x10 build/configRover/debug/_ext/1536116519/debug.o
 .gnu.attributes
                0x000001c0       0x10 build/configRover/debug/_ext/1360937237/timer.o
 .gnu.attributes
                0x000001d0       0x10 c:/program files (x86)/microchip/xc32/v1.40/bin/bin/../../lib/gcc/pic32mx/4.8.3/../../../../pic32mx/lib\libpic32.a(default-bootstrap-exception-handler.o)
 .gnu.attributes
                0x000001e0       0x10 c:/program files (x86)/microchip/xc32/v1.40/bin/bin/../../lib/gcc/pic32mx/4.8.3/../../../../pic32mx/lib\libpic32.a(default-on-reset.o)
 .gnu.attributes
                0x000001f0       0x10 c:/program files (x86)/microchip/xc32/v1.40/bin/bin/../../lib/gcc/pic32mx/4.8.3/../../../../pic32mx/lib\libpic32.a(default-on-bootstrap.o)
 .gnu.attributes
                0x00000200       0x10 c:/program files (x86)/microchip/xc32/v1.40/bin/bin/../../lib/gcc/pic32mx/4.8.3/../../../../pic32mx/lib\libpic32.a(defaultinterrupt.o)
 .gnu.attributes
                0x00000210       0x10 c:/program files (x86)/microchip/xc32/v1.40/bin/bin/../../lib/gcc/pic32mx/4.8.3/../../../../pic32mx/lib\libc.a(snprintf_fF.eo)
 .gnu.attributes
                0x00000220       0x10 c:/program files (x86)/microchip/xc32/v1.40/bin/bin/../../lib/gcc/pic32mx/4.8.3/../../../../pic32mx/lib\libc.a(sprintf_cdnopuxX.eo)
 .gnu.attributes
                0x00000230       0x10 c:/program files (x86)/microchip/xc32/v1.40/bin/bin/../../lib/gcc/pic32mx/4.8.3/../../../../pic32mx/lib\libc.a(vsnprintf_fF.eo)
 .gnu.attributes
                0x00000240       0x10 c:/program files (x86)/microchip/xc32/v1.40/bin/bin/../../lib/gcc/pic32mx/4.8.3/../../../../pic32mx/lib\libc.a(_fputc_simple.o)
 .gnu.attributes
                0x00000250       0x10 c:/program files (x86)/microchip/xc32/v1.40/bin/bin/../../lib/gcc/pic32mx/4.8.3/../../../../pic32mx/lib\libc.a(ctype.o)
 .gnu.attributes
                0x00000260       0x10 c:/program files (x86)/microchip/xc32/v1.40/bin/bin/../../lib/gcc/pic32mx/4.8.3/../../../../pic32mx/lib\libc.a(powersf.o)
 .gnu.attributes
                0x00000270       0x10 c:/program files (x86)/microchip/xc32/v1.40/bin/bin/../../lib/gcc/pic32mx/4.8.3/../../../../pic32mx/lib\libc.a(_iob.o)
 .gnu.attributes
                0x00000280       0x10 c:/program files (x86)/microchip/xc32/v1.40/bin/bin/../../lib/gcc/pic32mx/4.8.3/../../../../pic32mx/lib\libc.a(_flsbuf_simple.o)
 .gnu.attributes
                0x00000290       0x10 c:/program files (x86)/microchip/xc32/v1.40/bin/bin/../../lib/gcc/pic32mx/4.8.3/../../../../pic32mx/lib\libpic32.a(write.o)
 .gnu.attributes
                0x000002a0       0x10 c:/program files (x86)/microchip/xc32/v1.40/bin/bin/../../lib/gcc/pic32mx/4.8.3/../../../../pic32mx/lib\libpic32.a(_mon_putc.o)
 .gnu.attributes
                0x000002b0       0x10 c:/program files (x86)/microchip/xc32/v1.40/bin/bin/../../lib/gcc/pic32mx/4.8.3/../../../../pic32mx/lib\libpic32.a(xc32_uart.o)
 .gnu.attributes
                0x000002c0       0x10 c:/program files (x86)/microchip/xc32/v1.40/bin/bin/../../lib/gcc/pic32mx/4.8.3/../../../../pic32mx/lib\libe.a(_floatdisf.o)
 .gnu.attributes
                0x000002d0       0x10 c:/program files (x86)/microchip/xc32/v1.40/bin/bin/../../lib/gcc/pic32mx/4.8.3\libgcc.a(_udivdi3.o)
 .gnu.attributes
                0x000002e0       0x10 c:/program files (x86)/microchip/xc32/v1.40/bin/bin/../../lib/gcc/pic32mx/4.8.3\libgcc.a(_umoddi3.o)
 .gnu.attributes
                0x000002f0       0x10 c:/program files (x86)/microchip/xc32/v1.40/bin/bin/../../lib/gcc/pic32mx/4.8.3\libgcc.a(floatunsisf.o)
 .gnu.attributes
                0x00000300       0x10 c:/program files (x86)/microchip/xc32/v1.40/bin/bin/../../lib/gcc/pic32mx/4.8.3/../../../../pic32mx/lib\libc.a(doprnt_cdfFnopuxX.eo)
LOAD c:/program files (x86)/microchip/xc32/v1.40/bin/bin/../../lib/gcc/pic32mx/4.8.3\libgcc.a
START GROUP
LOAD c:/program files (x86)/microchip/xc32/v1.40/bin/bin/../../lib/gcc/pic32mx/4.8.3/../../../../pic32mx/lib\libpic32.a
LOAD c:/program files (x86)/microchip/xc32/v1.40/bin/bin/../../lib/gcc/pic32mx/4.8.3/../../../../pic32mx/lib\libdebug.a
LOAD c:/program files (x86)/microchip/xc32/v1.40/bin/bin/../../lib/gcc/pic32mx/4.8.3/../../../../pic32mx/lib\libpic32.a
LOAD c:/program files (x86)/microchip/xc32/v1.40/bin/bin/../../lib/gcc/pic32mx/4.8.3/../../../../pic32mx/lib\libm.a
LOAD c:/program files (x86)/microchip/xc32/v1.40/bin/bin/../../lib/gcc/pic32mx/4.8.3/../../../../pic32mx/lib\libe.a
LOAD c:/program files (x86)/microchip/xc32/v1.40/bin/bin/../../lib/gcc/pic32mx/4.8.3/../../../../pic32mx/lib\libdsp.a
LOAD c:/program files (x86)/microchip/xc32/v1.40/bin/bin/../../lib/gcc/pic32mx/4.8.3\libgcc.a
LOAD c:/program files (x86)/microchip/xc32/v1.40/bin/bin/../../lib/gcc/pic32mx/4.8.3/../../../../pic32mx/lib\libc.a
LOAD c:/program files (x86)/microchip/xc32/v1.40/bin/bin/../../lib/gcc/pic32mx/4.8.3/../../../../pic32mx/lib\libpic32.a
END GROUP
LOAD c:/program files (x86)/microchip/xc32/v1.40/bin/bin/../../lib/gcc/pic32mx/4.8.3\libgcc.a
OUTPUT(dist/configRover/debug/rover_ece4535.X.debug.elf elf32-tradlittlemips)
LOAD stack
LOAD data_init

.reginfo        0x00000000       0x18
 .reginfo       0x00000000       0x18 c:/program files (x86)/microchip/xc32/v1.40/bin/bin/../../lib/gcc/pic32mx/4.8.3/../../../../pic32mx/lib/./proc/32MX795F512L/crt0_mips32r2.o

.stack          0xa0005af8      0x400
 .stack         0xa0005af8      0x400 stack

.bss            0xa0000408     0x5640
 .bss           0xa0000408     0x5000 build/configRover/debug/_ext/1818123999/heap_1.o
 .bss           0xa0005408      0x640 build/configRover/debug/_ext/1062886388/port.o
                0xa0005408                xISRStack

.data           0xa0005a48       0x4c
 .data          0xa0005a48       0x4c build/configRover/debug/_ext/369138285/system_exceptions.o

.bss            0xa0005a94       0x44
 .bss           0xa0005a94       0x44 c:/program files (x86)/microchip/xc32/v1.40/bin/bin/../../lib/gcc/pic32mx/4.8.3/../../../../pic32mx/lib\libc.a(_iob.o)
                0xa0005a94                _outdone
                0xa0005a98                _sibuf
                0xa0005ab8                _sobuf

.text._vfprintf_cdfFnopuxX
                0x9d000000     0x1420
 .text._vfprintf_cdfFnopuxX
                0x9d000000     0x1420 c:/program files (x86)/microchip/xc32/v1.40/bin/bin/../../lib/gcc/pic32mx/4.8.3/../../../../pic32mx/lib\libc.a(doprnt_cdfFnopuxX.eo)
                0x9d000000                _vfprintf_cdfFnopuxX
                0x9d000000                _vfprintf_fF
                0x9d000000                _vfprintf_cdnopuxX

.text.communication_sendIntMsgFromISR
                0x9d001420      0x4c0
 .text.communication_sendIntMsgFromISR
                0x9d001420      0x4c0 build/configRover/debug/_ext/1360937237/communication.o
                0x9d001420                communication_sendIntMsgFromISR

.text.communication_sendIntMsg
                0x9d0018e0      0x4b8
 .text.communication_sendIntMsg
                0x9d0018e0      0x4b8 build/configRover/debug/_ext/1360937237/communication.o
                0x9d0018e0                communication_sendIntMsg

.text           0x9d001d98      0xd10
 .text          0x9d001d98      0x464 c:/program files (x86)/microchip/xc32/v1.40/bin/bin/../../lib/gcc/pic32mx/4.8.3\libgcc.a(_umoddi3.o)
                0x9d001d98                __umoddi3
 .text          0x9d0021fc      0x458 c:/program files (x86)/microchip/xc32/v1.40/bin/bin/../../lib/gcc/pic32mx/4.8.3\libgcc.a(_udivdi3.o)
                0x9d0021fc                __udivdi3
 .text          0x9d002654      0x454 build/configRover/debug/_ext/1062886388/port_asm.o
                0x9d002654                vPortTickInterruptHandler
                0x9d002800                vPortStartFirstTask
                0x9d0028c8                vPortYieldISR

.text.COMMUNICATION_Tasks
                0x9d002aa8      0x348
 .text.COMMUNICATION_Tasks
                0x9d002aa8      0x348 build/configRover/debug/_ext/1360937237/communication.o
                0x9d002aa8                COMMUNICATION_Tasks

.text.MOTOR_Tasks
                0x9d002df0      0x2d4
 .text.MOTOR_Tasks
                0x9d002df0      0x2d4 build/configRover/debug/_ext/1360937237/motor.o
                0x9d002df0                MOTOR_Tasks

.text.fpsubadd  0x9d0030c4      0x278
 .text.fpsubadd
                0x9d0030c4      0x278 c:/program files (x86)/microchip/xc32/v1.40/bin/bin/../../lib/gcc/pic32mx/4.8.3/../../../../pic32mx/lib\libm.a(fp32subadd.o)
                0x9d0030c4                __subsf3
                0x9d0030c4                fpsub
                0x9d0030cc                __addsf3
                0x9d0030cc                fpadd

.text.xQueueGenericReceive
                0x9d00333c      0x24c
 .text.xQueueGenericReceive
                0x9d00333c      0x24c build/configRover/debug/_ext/184327166/queue.o
                0x9d00333c                xQueueGenericReceive

.text.fp32div   0x9d003588      0x230
 .text.fp32div  0x9d003588      0x230 c:/program files (x86)/microchip/xc32/v1.40/bin/bin/../../lib/gcc/pic32mx/4.8.3/../../../../pic32mx/lib\libm.a(fp32div.o)
                0x9d003588                fpdiv
                0x9d003588                __divsf3

.text.scale     0x9d0037b8      0x21c
 .text.scale    0x9d0037b8      0x21c c:/program files (x86)/microchip/xc32/v1.40/bin/bin/../../lib/gcc/pic32mx/4.8.3/../../../../pic32mx/lib\libc.a(doprnt_cdfFnopuxX.eo)

.text.__floatdisf
                0x9d0039d4      0x214
 .text.__floatdisf
                0x9d0039d4      0x214 c:/program files (x86)/microchip/xc32/v1.40/bin/bin/../../lib/gcc/pic32mx/4.8.3/../../../../pic32mx/lib\libe.a(_floatdisf.o)
                0x9d0039d4                __floatdisf

.text.xQueueGenericSend
                0x9d003be8      0x208
 .text.xQueueGenericSend
                0x9d003be8      0x208 build/configRover/debug/_ext/184327166/queue.o
                0x9d003be8                xQueueGenericSend

.text.xTaskGenericCreate
                0x9d003df0      0x1c0
 .text.xTaskGenericCreate
                0x9d003df0      0x1c0 build/configRover/debug/_ext/184327166/tasks.o
                0x9d003df0                xTaskGenericCreate

.text.fp32mul   0x9d003fb0      0x1bc
 .text.fp32mul  0x9d003fb0      0x1bc c:/program files (x86)/microchip/xc32/v1.40/bin/bin/../../lib/gcc/pic32mx/4.8.3/../../../../pic32mx/lib\libm.a(fp32mul.o)
                0x9d003fb0                __mulsf3
                0x9d003fb0                fpmul

.ExternalInterruptInstance0_vector_text
                0x9d00416c      0x1b4
 .ExternalInterruptInstance0_vector_text
                0x9d00416c      0x1b4 build/configRover/debug/_ext/369138285/system_interrupt_a.o

.ExternalInterruptInstance1_vector_text
                0x9d004320      0x1b4
 .ExternalInterruptInstance1_vector_text
                0x9d004320      0x1b4 build/configRover/debug/_ext/369138285/system_interrupt_a.o

.DrvTmrInstance0_vector_text
                0x9d0044d4      0x1b4
 .DrvTmrInstance0_vector_text
                0x9d0044d4      0x1b4 build/configRover/debug/_ext/369138285/system_interrupt_a.o

.DrvTmrInstance1_vector_text
                0x9d004688      0x1b4
 .DrvTmrInstance1_vector_text
                0x9d004688      0x1b4 build/configRover/debug/_ext/369138285/system_interrupt_a.o

.DrvTmrInstance2_vector_text
                0x9d00483c      0x1b4
 .DrvTmrInstance2_vector_text
                0x9d00483c      0x1b4 build/configRover/debug/_ext/369138285/system_interrupt_a.o

.DrvTmrInstance3_vector_text
                0x9d0049f0      0x1b4
 .DrvTmrInstance3_vector_text
                0x9d0049f0      0x1b4 build/configRover/debug/_ext/369138285/system_interrupt_a.o

.DrvUsartInstance0_vector_text
                0x9d004ba4      0x1b4
 .DrvUsartInstance0_vector_text
                0x9d004ba4      0x1b4 build/configRover/debug/_ext/369138285/system_interrupt_a.o

.DrvUsartInstance1_vector_text
                0x9d004d58      0x1b4
 .DrvUsartInstance1_vector_text
                0x9d004d58      0x1b4 build/configRover/debug/_ext/369138285/system_interrupt_a.o

.text.xTaskIncrementTick
                0x9d004f0c      0x19c
 .text.xTaskIncrementTick
                0x9d004f0c      0x19c build/configRover/debug/_ext/184327166/tasks.o
                0x9d004f0c                xTaskIncrementTick

.text           0x9d0050a8      0x168
 .text          0x9d0050a8      0x168 c:/program files (x86)/microchip/xc32/v1.40/bin/bin/../../lib/gcc/pic32mx/4.8.3/../../../../pic32mx/lib\libpic32.a(memcpy.o)
                0x9d0050a8                memcpy

.text.SYS_Initialize
                0x9d005210      0x154
 .text.SYS_Initialize
                0x9d005210      0x154 build/configRover/debug/_ext/369138285/system_init.o
                0x9d005210                SYS_Initialize

.text.xTaskResumeAll
                0x9d005364      0x154
 .text.xTaskResumeAll
                0x9d005364      0x154 build/configRover/debug/_ext/184327166/tasks.o
                0x9d005364                xTaskResumeAll

.text.fputc     0x9d0054b8      0x144
 .text.fputc    0x9d0054b8      0x144 c:/program files (x86)/microchip/xc32/v1.40/bin/bin/../../lib/gcc/pic32mx/4.8.3/../../../../pic32mx/lib\libc.a(_fputc_simple.o)
                0x9d0054b8                fputc

.dinit          0x9d0055fc      0x130
 .dinit         0x9d0055fc      0x130 data_init

.text.vTaskPriorityInherit
                0x9d00572c      0x12c
 .text.vTaskPriorityInherit
                0x9d00572c      0x12c build/configRover/debug/_ext/184327166/tasks.o
                0x9d00572c                vTaskPriorityInherit

.text._flsbuf   0x9d005858      0x12c
 .text._flsbuf  0x9d005858      0x12c c:/program files (x86)/microchip/xc32/v1.40/bin/bin/../../lib/gcc/pic32mx/4.8.3/../../../../pic32mx/lib\libc.a(_flsbuf_simple.o)
                0x9d005858                _flsbuf

.text.MOTOR_Initialize
                0x9d005984      0x11c
 .text.MOTOR_Initialize
                0x9d005984      0x11c build/configRover/debug/_ext/1360937237/motor.o
                0x9d005984                MOTOR_Initialize

.text.vTaskSwitchContext
                0x9d005aa0      0x11c
 .text.vTaskSwitchContext
                0x9d005aa0      0x11c build/configRover/debug/_ext/184327166/tasks.o
                0x9d005aa0                vTaskSwitchContext

.text.DRV_USART1_Initialize
                0x9d005bbc      0x10c
 .text.DRV_USART1_Initialize
                0x9d005bbc      0x10c build/configRover/debug/_ext/1532176561/drv_usart_static.o
                0x9d005bbc                DRV_USART1_Initialize

.text.prvUnlockQueue
                0x9d005cc8      0x104
 .text.prvUnlockQueue
                0x9d005cc8      0x104 build/configRover/debug/_ext/184327166/queue.o

.rodata         0x9d005dcc      0x104
 .rodata        0x9d005dcc      0x104 c:/program files (x86)/microchip/xc32/v1.40/bin/bin/../../lib/gcc/pic32mx/4.8.3/../../../../pic32mx/lib\libc.a(ctype.o)
                0x9d005dcc                _ctype

.text.prvCopyDataToQueue
                0x9d005ed0       0xfc
 .text.prvCopyDataToQueue
                0x9d005ed0       0xfc build/configRover/debug/_ext/184327166/queue.o

.text.xTaskPriorityDisinherit
                0x9d005fcc       0xf8
 .text.xTaskPriorityDisinherit
                0x9d005fcc       0xf8 build/configRover/debug/_ext/184327166/tasks.o
                0x9d005fcc                xTaskPriorityDisinherit

.text.DRV_USART0_Initialize
                0x9d0060c4       0xf0
 .text.DRV_USART0_Initialize
                0x9d0060c4       0xf0 build/configRover/debug/_ext/1532176561/drv_usart_static.o
                0x9d0060c4                DRV_USART0_Initialize

.text.xQueueGenericSendFromISR
                0x9d0061b4       0xe8
 .text.xQueueGenericSendFromISR
                0x9d0061b4       0xe8 build/configRover/debug/_ext/184327166/queue.o
                0x9d0061b4                xQueueGenericSendFromISR

.text.communication_getByteISR
                0x9d00629c       0xe0
 .text.communication_getByteISR
                0x9d00629c       0xe0 build/configRover/debug/_ext/1360937237/communication.o
                0x9d00629c                communication_getByteISR

.rodata         0x9d006380      0x1bc
 .rodata        0x9d006380       0xe0 c:/program files (x86)/microchip/xc32/v1.40/bin/bin/../../lib/gcc/pic32mx/4.8.3/../../../../pic32mx/lib\libc.a(doprnt_cdfFnopuxX.eo)
 .rodata        0x9d006460       0xdc build/configRover/debug/_ext/369138285/system_exceptions.o

.text.SYS_DEVCON_PerformanceConfig
                0x9d00653c       0xdc
 .text.SYS_DEVCON_PerformanceConfig
                0x9d00653c       0xdc build/configRover/debug/_ext/351848739/sys_devcon_pic32mx.o
                0x9d00653c                SYS_DEVCON_PerformanceConfig

.text.general_exception
                0x9d006618       0xdc
 .text.general_exception
                0x9d006618       0xdc c:/program files (x86)/microchip/xc32/v1.40/bin/bin/../../lib/gcc/pic32mx/4.8.3/../../../../pic32mx/lib\libpic32.a(general-exception.o)
                0x9d006618                _general_exception_context

.text.IntHandlerDrvUsartInstance1
                0x9d0066f4       0xd8
 .text.IntHandlerDrvUsartInstance1
                0x9d0066f4       0xd8 build/configRover/debug/_ext/369138285/system_interrupt.o
                0x9d0066f4                IntHandlerDrvUsartInstance1

.text.xQueueReceiveFromISR
                0x9d0067cc       0xd4
 .text.xQueueReceiveFromISR
                0x9d0067cc       0xd4 build/configRover/debug/_ext/184327166/queue.o
                0x9d0067cc                xQueueReceiveFromISR

.text._mon_putc
                0x9d0068a0       0xd4
 .text._mon_putc
                0x9d0068a0       0xd4 c:/program files (x86)/microchip/xc32/v1.40/bin/bin/../../lib/gcc/pic32mx/4.8.3/../../../../pic32mx/lib\libpic32.a(_mon_putc.o)
                0x9d0068a0                _mon_putc

.rodata         0x9d006974       0xc4
 .rodata        0x9d006974       0xc4 build/configRover/debug/_ext/1360937237/communication.o

.text.xQueueGenericReset
                0x9d006a38       0xc4
 .text.xQueueGenericReset
                0x9d006a38       0xc4 build/configRover/debug/_ext/184327166/queue.o
                0x9d006a38                xQueueGenericReset

.text.IntHandlerDrvUsartInstance0
                0x9d006afc       0xc0
 .text.IntHandlerDrvUsartInstance0
                0x9d006afc       0xc0 build/configRover/debug/_ext/369138285/system_interrupt.o
                0x9d006afc                IntHandlerDrvUsartInstance0

.text.COMMUNICATION_Initialize
                0x9d006bbc       0xc0
 .text.COMMUNICATION_Initialize
                0x9d006bbc       0xc0 build/configRover/debug/_ext/1360937237/communication.o
                0x9d006bbc                COMMUNICATION_Initialize

.text.xTaskRemoveFromEventList
                0x9d006c7c       0xbc
 .text.xTaskRemoveFromEventList
                0x9d006c7c       0xbc build/configRover/debug/_ext/184327166/tasks.o
                0x9d006c7c                xTaskRemoveFromEventList

.text.pvPortMalloc
                0x9d006d38       0xb8
 .text.pvPortMalloc
                0x9d006d38       0xb8 build/configRover/debug/_ext/1818123999/heap_1.o
                0x9d006d38                pvPortMalloc

.text.prvInitialiseTCBVariables
                0x9d006df0       0xb4
 .text.prvInitialiseTCBVariables
                0x9d006df0       0xb4 build/configRover/debug/_ext/184327166/tasks.o
                0x9d006df0                prvInitialiseTCBVariables

.text.IntToChar
                0x9d006ea4       0xb0
 .text.IntToChar
                0x9d006ea4       0xb0 build/configRover/debug/_ext/1360937237/communication.o
                0x9d006ea4                IntToChar

.text.SYS_Tasks
                0x9d006f54       0xac
 .text.SYS_Tasks
                0x9d006f54       0xac build/configRover/debug/_ext/369138285/system_tasks.o
                0x9d006f54                SYS_Tasks

.text           0x9d007000       0xa8
 .text          0x9d007000       0xa8 c:/program files (x86)/microchip/xc32/v1.40/bin/bin/../../lib/gcc/pic32mx/4.8.3/../../../../pic32mx/lib\libpic32.a(memset.o)
                0x9d007000                memset

.text.xTaskCheckForTimeOut
                0x9d0070a8       0xa0
 .text.xTaskCheckForTimeOut
                0x9d0070a8       0xa0 build/configRover/debug/_ext/184327166/tasks.o
                0x9d0070a8                xTaskCheckForTimeOut

.text.write     0x9d007148       0x9c
 .text.write    0x9d007148       0x9c c:/program files (x86)/microchip/xc32/v1.40/bin/bin/../../lib/gcc/pic32mx/4.8.3/../../../../pic32mx/lib\libpic32.a(write.o)
                0x9d007148                write

.text.fpcmp     0x9d0071e4       0x9c
 .text.fpcmp    0x9d0071e4       0x9c c:/program files (x86)/microchip/xc32/v1.40/bin/bin/../../lib/gcc/pic32mx/4.8.3/../../../../pic32mx/lib\libm.a(fpcmp.o)
                0x9d0071e4                __eqsf2
                0x9d0071e4                __lesf2
                0x9d0071e4                __gtsf2
                0x9d0071e4                __nesf2
                0x9d0071e4                fpcmp
                0x9d0071e4                __gesf2
                0x9d0071e4                __ltsf2

.text           0x9d007280       0x98
 .text          0x9d007280       0x98 c:/program files (x86)/microchip/xc32/v1.40/bin/bin/../../lib/gcc/pic32mx/4.8.3/../../../../pic32mx/lib\libpic32.a(memcmp.o)
                0x9d007280                memcmp

.text.xQueueGenericCreate
                0x9d007318       0x94
 .text.xQueueGenericCreate
                0x9d007318       0x94 build/configRover/debug/_ext/184327166/queue.o
                0x9d007318                xQueueGenericCreate

.text.vTaskPlaceOnEventList
                0x9d0073ac       0x94
 .text.vTaskPlaceOnEventList
                0x9d0073ac       0x94 build/configRover/debug/_ext/184327166/tasks.o
                0x9d0073ac                vTaskPlaceOnEventList

.text.vTaskDelay
                0x9d007440       0x90
 .text.vTaskDelay
                0x9d007440       0x90 build/configRover/debug/_ext/184327166/tasks.o
                0x9d007440                vTaskDelay

.text.prvInitialiseTaskLists
                0x9d0074d0       0x90
 .text.prvInitialiseTaskLists
                0x9d0074d0       0x90 build/configRover/debug/_ext/184327166/tasks.o
                0x9d0074d0                prvInitialiseTaskLists

.text.prvCheckTasksWaitingTermination
                0x9d007560       0x90
 .text.prvCheckTasksWaitingTermination
                0x9d007560       0x90 build/configRover/debug/_ext/184327166/tasks.o
                0x9d007560                prvCheckTasksWaitingTermination

.text.DRV_TMR0_Initialize
                0x9d0075f0       0x88
 .text.DRV_TMR0_Initialize
                0x9d0075f0       0x88 build/configRover/debug/_ext/1797679462/drv_tmr_static.o
                0x9d0075f0                DRV_TMR0_Initialize

.text.debugU    0x9d007678       0x88
 .text.debugU   0x9d007678       0x88 build/configRover/debug/_ext/1536116519/debug.o
                0x9d007678                debugU

.text.libm      0x9d007700       0x88
 .text.libm     0x9d007700       0x88 c:/program files (x86)/microchip/xc32/v1.40/bin/bin/../../lib/gcc/pic32mx/4.8.3/../../../../pic32mx/lib\libm.a(fpfrexp.o)
                0x9d007700                frexpf
                0x9d007700                fpfrexp

.text.DRV_TMR3_Initialize
                0x9d007788       0x84
 .text.DRV_TMR3_Initialize
                0x9d007788       0x84 build/configRover/debug/_ext/1797679462/drv_tmr_static.o
                0x9d007788                DRV_TMR3_Initialize

.text.prvAllocateTCBAndStack
                0x9d00780c       0x84
 .text.prvAllocateTCBAndStack
                0x9d00780c       0x84 build/configRover/debug/_ext/184327166/tasks.o
                0x9d00780c                prvAllocateTCBAndStack

.text.DRV_TMR1_Initialize
                0x9d007890       0x80
 .text.DRV_TMR1_Initialize
                0x9d007890       0x80 build/configRover/debug/_ext/1797679462/drv_tmr_static.o
                0x9d007890                DRV_TMR1_Initialize

.text.DRV_TMR2_Initialize
                0x9d007910       0x80
 .text.DRV_TMR2_Initialize
                0x9d007910       0x80 build/configRover/debug/_ext/1797679462/drv_tmr_static.o
                0x9d007910                DRV_TMR2_Initialize

.text.CharToInt
                0x9d007990       0x7c
 .text.CharToInt
                0x9d007990       0x7c build/configRover/debug/_ext/1360937237/communication.o
                0x9d007990                CharToInt

.text.vTaskStartScheduler
                0x9d007a0c       0x7c
 .text.vTaskStartScheduler
                0x9d007a0c       0x7c build/configRover/debug/_ext/184327166/tasks.o
                0x9d007a0c                vTaskStartScheduler

.text.fptoul    0x9d007a88       0x7c
 .text.fptoul   0x9d007a88       0x7c c:/program files (x86)/microchip/xc32/v1.40/bin/bin/../../lib/gcc/pic32mx/4.8.3/../../../../pic32mx/lib\libm.a(fptoul.o)
                0x9d007a88                fptoul
                0x9d007a88                fptoui
                0x9d007a88                __fixunssfsi

.text.prvAddCurrentTaskToDelayedList
                0x9d007b04       0x70
 .text.prvAddCurrentTaskToDelayedList
                0x9d007b04       0x70 build/configRover/debug/_ext/184327166/tasks.o
                0x9d007b04                prvAddCurrentTaskToDelayedList

.text.vApplicationSetupTickTimerInterrupt
                0x9d007b74       0x6c
 .text.vApplicationSetupTickTimerInterrupt
                0x9d007b74       0x6c build/configRover/debug/_ext/1062886388/port.o
                0x9d007b74                vApplicationSetupTickTimerInterrupt

.text.vTaskExitCritical
                0x9d007be0       0x68
 .text.vTaskExitCritical
                0x9d007be0       0x68 build/configRover/debug/_ext/184327166/tasks.o
                0x9d007be0                vTaskExitCritical

.text._sprintf_cdnopuxX
                0x9d007c48       0x68
 .text._sprintf_cdnopuxX
                0x9d007c48       0x68 c:/program files (x86)/microchip/xc32/v1.40/bin/bin/../../lib/gcc/pic32mx/4.8.3/../../../../pic32mx/lib\libc.a(sprintf_cdnopuxX.eo)
                0x9d007c48                _sprintf_cdnopuxX

.rodata         0x9d007cb0       0x68
 .rodata        0x9d007cb0       0x68 c:/program files (x86)/microchip/xc32/v1.40/bin/bin/../../lib/gcc/pic32mx/4.8.3/../../../../pic32mx/lib\libc.a(powersf.o)
                0x9d007cb0                _powers_f
                0x9d007ce4                _npowers_f

.text.DRV_OC0_Initialize
                0x9d007d18       0x64
 .text.DRV_OC0_Initialize
                0x9d007d18       0x64 build/configRover/debug/_ext/64793341/drv_oc_static.o
                0x9d007d18                DRV_OC0_Initialize

.text.DRV_OC1_Initialize
                0x9d007d7c       0x64
 .text.DRV_OC1_Initialize
                0x9d007d7c       0x64 build/configRover/debug/_ext/64793341/drv_oc_static.o
                0x9d007d7c                DRV_OC1_Initialize

.text.motor_sendmsgISR
                0x9d007de0       0x64
 .text.motor_sendmsgISR
                0x9d007de0       0x64 build/configRover/debug/_ext/1360937237/motor.o
                0x9d007de0                motor_sendmsgISR

.text.sitofp    0x9d007e44       0x60
 .text.sitofp   0x9d007e44       0x60 c:/program files (x86)/microchip/xc32/v1.40/bin/bin/../../lib/gcc/pic32mx/4.8.3/../../../../pic32mx/lib\libm.a(sitofp.o)
                0x9d007e44                sitofp
                0x9d007e44                litofp
                0x9d007e44                __floatsisf

.text.xPortStartScheduler
                0x9d007ea4       0x5c
 .text.xPortStartScheduler
                0x9d007ea4       0x5c build/configRover/debug/_ext/1062886388/port.o
                0x9d007ea4                xPortStartScheduler

.text.vListInsert
                0x9d007f00       0x5c
 .text.vListInsert
                0x9d007f00       0x5c build/configRover/debug/_ext/184327166/list.o
                0x9d007f00                vListInsert

.text.SYS_CLK_Initialize
                0x9d007f5c       0x58
 .text.SYS_CLK_Initialize
                0x9d007f5c       0x58 build/configRover/debug/_ext/249367850/sys_clk_static.o
                0x9d007f5c                SYS_CLK_Initialize

.text.SYS_DEVCON_SystemUnlock
                0x9d007fb4       0x58
 .text.SYS_DEVCON_SystemUnlock
                0x9d007fb4       0x58 build/configRover/debug/_ext/351848739/sys_devcon.o
                0x9d007fb4                SYS_DEVCON_SystemUnlock

.text.main_entry
                0x9d00800c       0x54
 .text.main_entry
                0x9d00800c       0x54 c:/program files (x86)/microchip/xc32/v1.40/bin/bin/../../lib/gcc/pic32mx/4.8.3/../../../../pic32mx/lib/./proc/32MX795F512L/crt0_mips32r2.o
                0x9d008040                __crt0_exit

.text.pxPortInitialiseStack
                0x9d008060       0x54
 .text.pxPortInitialiseStack
                0x9d008060       0x54 build/configRover/debug/_ext/1062886388/port.o
                0x9d008060                pxPortInitialiseStack

.text.vPortIncrementTick
                0x9d0080b4       0x54
 .text.vPortIncrementTick
                0x9d0080b4       0x54 build/configRover/debug/_ext/1062886388/port.o
                0x9d0080b4                vPortIncrementTick

.text.motor_durationTick
                0x9d008108       0x50
 .text.motor_durationTick
                0x9d008108       0x50 build/configRover/debug/_ext/1360937237/motor.o
                0x9d008108                motor_durationTick

.text.prvCopyDataFromQueue
                0x9d008158       0x50
 .text.prvCopyDataFromQueue
                0x9d008158       0x50 build/configRover/debug/_ext/184327166/queue.o

.text.vTaskEnterCritical
                0x9d0081a8       0x50
 .text.vTaskEnterCritical
                0x9d0081a8       0x50 build/configRover/debug/_ext/184327166/tasks.o
                0x9d0081a8                vTaskEnterCritical

.text.IntHandlerDrvTmrInstance3
                0x9d0081f8       0x4c
 .text.IntHandlerDrvTmrInstance3
                0x9d0081f8       0x4c build/configRover/debug/_ext/369138285/system_interrupt.o
                0x9d0081f8                IntHandlerDrvTmrInstance3

.text           0x9d008244       0x4c
 .text          0x9d008244       0x4c c:/program files (x86)/microchip/xc32/v1.40/bin/bin/../../lib/gcc/pic32mx/4.8.3\libgcc.a(floatunsisf.o)
                0x9d008244                __floatunsisf

.text.SYS_DEVCON_SystemLock
                0x9d008290       0x48
 .text.SYS_DEVCON_SystemLock
                0x9d008290       0x48 build/configRover/debug/_ext/351848739/sys_devcon.o
                0x9d008290                SYS_DEVCON_SystemLock

.text._bootstrap_exception_handler
                0x9d0082d8       0x48
 .text._bootstrap_exception_handler
                0x9d0082d8       0x48 c:/program files (x86)/microchip/xc32/v1.40/bin/bin/../../lib/gcc/pic32mx/4.8.3/../../../../pic32mx/lib\libpic32.a(default-bootstrap-exception-handler.o)
                0x9d0082d8                _bootstrap_exception_handler

.vector_default
                0x9d008320       0x48
 .vector_default
                0x9d008320       0x48 c:/program files (x86)/microchip/xc32/v1.40/bin/bin/../../lib/gcc/pic32mx/4.8.3/../../../../pic32mx/lib\libpic32.a(defaultinterrupt.o)
                0x9d008320                _DefaultInterrupt

.text._general_exception_handler
                0x9d008368       0x44
 .text._general_exception_handler
                0x9d008368       0x44 build/configRover/debug/_ext/369138285/system_exceptions.o
                0x9d008368                _general_exception_handler

.text.uxListRemove
                0x9d0083ac       0x44
 .text.uxListRemove
                0x9d0083ac       0x44 build/configRover/debug/_ext/184327166/list.o
                0x9d0083ac                uxListRemove

.text           0x9d0083f0       0x44
 .text          0x9d0083f0       0x44 c:/program files (x86)/microchip/xc32/v1.40/bin/bin/../../lib/gcc/pic32mx/4.8.3/../../../../pic32mx/lib\pic32_software_reset.o
                0x9d0083f0                __pic32_software_reset

.text.SYS_PORTS_Initialize
                0x9d008434       0x40
 .text.SYS_PORTS_Initialize
                0x9d008434       0x40 build/configRover/debug/_ext/1926720346/sys_ports_static.o
                0x9d008434                SYS_PORTS_Initialize

.text.prvIdleTask
                0x9d008474       0x40
 .text.prvIdleTask
                0x9d008474       0x40 build/configRover/debug/_ext/184327166/tasks.o
                0x9d008474                prvIdleTask

.text.initDebugU
                0x9d0084b4       0x40
 .text.initDebugU
                0x9d0084b4       0x40 build/configRover/debug/_ext/1536116519/debug.o
                0x9d0084b4                initDebugU

.text.IntHandlerDrvTmrInstance2
                0x9d0084f4       0x3c
 .text.IntHandlerDrvTmrInstance2
                0x9d0084f4       0x3c build/configRover/debug/_ext/369138285/system_interrupt.o
                0x9d0084f4                IntHandlerDrvTmrInstance2

.text.uxPortSetInterruptMaskFromISR
                0x9d008530       0x3c
 .text.uxPortSetInterruptMaskFromISR
                0x9d008530       0x3c build/configRover/debug/_ext/1062886388/port.o
                0x9d008530                uxPortSetInterruptMaskFromISR

.text.debugUInt
                0x9d00856c       0x3c
 .text.debugUInt
                0x9d00856c       0x3c build/configRover/debug/_ext/1536116519/debug.o
                0x9d00856c                debugUInt

.text.communication_sendmsgISR
                0x9d0085a8       0x38
 .text.communication_sendmsgISR
                0x9d0085a8       0x38 build/configRover/debug/_ext/1360937237/communication.o
                0x9d0085a8                communication_sendmsgISR

.text.prvResetNextTaskUnblockTime
                0x9d0085e0       0x38
 .text.prvResetNextTaskUnblockTime
                0x9d0085e0       0x38 build/configRover/debug/_ext/184327166/tasks.o
                0x9d0085e0                prvResetNextTaskUnblockTime

.text.SYS_INT_ExternalInterruptTriggerSet
                0x9d008618       0x34
 .text.SYS_INT_ExternalInterruptTriggerSet
                0x9d008618       0x34 build/configRover/debug/_ext/474818461/sys_int_pic32.o
                0x9d008618                SYS_INT_ExternalInterruptTriggerSet

.text.crash     0x9d00864c       0x34
 .text.crash    0x9d00864c       0x34 build/configRover/debug/_ext/1536116519/debug.o
                0x9d00864c                crash

.text.DRV_USART1_ReadByte
                0x9d008680       0x30
 .text.DRV_USART1_ReadByte
                0x9d008680       0x30 build/configRover/debug/_ext/1532176561/drv_usart_static.o
                0x9d008680                DRV_USART1_ReadByte

.text.vListInsertEnd
                0x9d0086b0       0x30
 .text.vListInsertEnd
                0x9d0086b0       0x30 build/configRover/debug/_ext/184327166/list.o
                0x9d0086b0                vListInsertEnd

.text.prvDeleteTCB
                0x9d0086e0       0x30
 .text.prvDeleteTCB
                0x9d0086e0       0x30 build/configRover/debug/_ext/184327166/tasks.o
                0x9d0086e0                prvDeleteTCB

.text.debugUGetByteISR
                0x9d008710       0x30
 .text.debugUGetByteISR
                0x9d008710       0x30 build/configRover/debug/_ext/1536116519/debug.o
                0x9d008710                debugUGetByteISR

.text.DRV_USART0_WriteByte
                0x9d008740       0x2c
 .text.DRV_USART0_WriteByte
                0x9d008740       0x2c build/configRover/debug/_ext/1532176561/drv_usart_static.o
                0x9d008740                DRV_USART0_WriteByte

.text.DRV_USART1_WriteByte
                0x9d00876c       0x2c
 .text.DRV_USART1_WriteByte
                0x9d00876c       0x2c build/configRover/debug/_ext/1532176561/drv_usart_static.o
                0x9d00876c                DRV_USART1_WriteByte

.text.IntHandlerExternalInterruptInstance0
                0x9d008798       0x2c
 .text.IntHandlerExternalInterruptInstance0
                0x9d008798       0x2c build/configRover/debug/_ext/369138285/system_interrupt.o
                0x9d008798                IntHandlerExternalInterruptInstance0

.text.IntHandlerExternalInterruptInstance1
                0x9d0087c4       0x2c
 .text.IntHandlerExternalInterruptInstance1
                0x9d0087c4       0x2c build/configRover/debug/_ext/369138285/system_interrupt.o
                0x9d0087c4                IntHandlerExternalInterruptInstance1

.rodata         0x9d0087f0       0x2c
 .rodata        0x9d0087f0       0x2c build/configRover/debug/_ext/369138285/system_tasks.o

.text.vApplicationStackOverflowHook
                0x9d00881c       0x2c
 .text.vApplicationStackOverflowHook
                0x9d00881c       0x2c build/configRover/debug/_ext/369138285/rtos_hooks.o
                0x9d00881c                vApplicationStackOverflowHook

.text.vApplicationMallocFailedHook
                0x9d008848       0x2c
 .text.vApplicationMallocFailedHook
                0x9d008848       0x2c build/configRover/debug/_ext/369138285/rtos_hooks.o
                0x9d008848                vApplicationMallocFailedHook

.text.prvTaskExitError
                0x9d008874       0x2c
 .text.prvTaskExitError
                0x9d008874       0x2c build/configRover/debug/_ext/1062886388/port.o

.text.communication_IntQueueEmptyISR
                0x9d0088a0       0x28
 .text.communication_IntQueueEmptyISR
                0x9d0088a0       0x28 build/configRover/debug/_ext/1360937237/communication.o
                0x9d0088a0                communication_IntQueueEmptyISR

.text.pvTaskIncrementMutexHeldCount
                0x9d0088c8       0x28
 .text.pvTaskIncrementMutexHeldCount
                0x9d0088c8       0x28 build/configRover/debug/_ext/184327166/tasks.o
                0x9d0088c8                pvTaskIncrementMutexHeldCount

.rodata         0x9d0088f0       0x4c
 .rodata        0x9d0088f0       0x28 build/configRover/debug/_ext/1536116519/debug.o
 .rodata        0x9d008918       0x24 build/configRover/debug/_ext/1360937237/motor.o

.text.debugUQueueEmptyISR
                0x9d00893c       0x24
 .text.debugUQueueEmptyISR
                0x9d00893c       0x24 build/configRover/debug/_ext/1536116519/debug.o
                0x9d00893c                debugUQueueEmptyISR

.text.IntHandlerDrvTmrInstance0
                0x9d008960       0x20
 .text.IntHandlerDrvTmrInstance0
                0x9d008960       0x20 build/configRover/debug/_ext/369138285/system_interrupt.o
                0x9d008960                IntHandlerDrvTmrInstance0

.text.IntHandlerDrvTmrInstance1
                0x9d008980       0x20
 .text.IntHandlerDrvTmrInstance1
                0x9d008980       0x20 build/configRover/debug/_ext/369138285/system_interrupt.o
                0x9d008980                IntHandlerDrvTmrInstance1

.text._SYS_Tasks
                0x9d0089a0       0x20
 .text._SYS_Tasks
                0x9d0089a0       0x20 build/configRover/debug/_ext/369138285/system_tasks.o

.text._COMMUNICATION_Tasks
                0x9d0089c0       0x20
 .text._COMMUNICATION_Tasks
                0x9d0089c0       0x20 build/configRover/debug/_ext/369138285/system_tasks.o

.text._MOTOR_Tasks
                0x9d0089e0       0x20
 .text._MOTOR_Tasks
                0x9d0089e0       0x20 build/configRover/debug/_ext/369138285/system_tasks.o

.text.main      0x9d008a00       0x20
 .text.main     0x9d008a00       0x20 build/configRover/debug/_ext/1360937237/main.o
                0x9d008a00                main

.text.vListInitialise
                0x9d008a20       0x20
 .text.vListInitialise
                0x9d008a20       0x20 build/configRover/debug/_ext/184327166/list.o
                0x9d008a20                vListInitialise

.text.SYS_DEVCON_JTAGDisable
                0x9d008a40       0x1c
 .text.SYS_DEVCON_JTAGDisable
                0x9d008a40       0x1c build/configRover/debug/_ext/351848739/sys_devcon.o
                0x9d008a40                SYS_DEVCON_JTAGDisable

.text.vPortClearInterruptMaskFromISR
                0x9d008a5c       0x1c
 .text.vPortClearInterruptMaskFromISR
                0x9d008a5c       0x1c build/configRover/debug/_ext/1062886388/port.o
                0x9d008a5c                vPortClearInterruptMaskFromISR

.rodata         0x9d008a78       0x1c
 .rodata        0x9d008a78       0x1c build/configRover/debug/_ext/184327166/tasks.o

.text.DRV_OC0_Start
                0x9d008a94       0x18
 .text.DRV_OC0_Start
                0x9d008a94       0x18 build/configRover/debug/_ext/64793341/drv_oc_static.o
                0x9d008a94                DRV_OC0_Start

.text.DRV_OC0_Stop
                0x9d008aac       0x18
 .text.DRV_OC0_Stop
                0x9d008aac       0x18 build/configRover/debug/_ext/64793341/drv_oc_static.o
                0x9d008aac                DRV_OC0_Stop

.text.DRV_OC1_Start
                0x9d008ac4       0x18
 .text.DRV_OC1_Start
                0x9d008ac4       0x18 build/configRover/debug/_ext/64793341/drv_oc_static.o
                0x9d008ac4                DRV_OC1_Start

.text.DRV_OC1_Stop
                0x9d008adc       0x18
 .text.DRV_OC1_Stop
                0x9d008adc       0x18 build/configRover/debug/_ext/64793341/drv_oc_static.o
                0x9d008adc                DRV_OC1_Stop

.text.DRV_TMR0_Start
                0x9d008af4       0x18
 .text.DRV_TMR0_Start
                0x9d008af4       0x18 build/configRover/debug/_ext/1797679462/drv_tmr_static.o
                0x9d008af4                DRV_TMR0_Start

.text.DRV_TMR0_Stop
                0x9d008b0c       0x18
 .text.DRV_TMR0_Stop
                0x9d008b0c       0x18 build/configRover/debug/_ext/1797679462/drv_tmr_static.o
                0x9d008b0c                DRV_TMR0_Stop

.text.DRV_TMR1_Start
                0x9d008b24       0x18
 .text.DRV_TMR1_Start
                0x9d008b24       0x18 build/configRover/debug/_ext/1797679462/drv_tmr_static.o
                0x9d008b24                DRV_TMR1_Start

.text.DRV_TMR2_Start
                0x9d008b3c       0x18
 .text.DRV_TMR2_Start
                0x9d008b3c       0x18 build/configRover/debug/_ext/1797679462/drv_tmr_static.o
                0x9d008b3c                DRV_TMR2_Start

.text.DRV_TMR2_Stop
                0x9d008b54       0x18
 .text.DRV_TMR2_Stop
                0x9d008b54       0x18 build/configRover/debug/_ext/1797679462/drv_tmr_static.o
                0x9d008b54                DRV_TMR2_Stop

.text.DRV_TMR3_Start
                0x9d008b6c       0x18
 .text.DRV_TMR3_Start
                0x9d008b6c       0x18 build/configRover/debug/_ext/1797679462/drv_tmr_static.o
                0x9d008b6c                DRV_TMR3_Start

.text.motor_LEncode
                0x9d008b84       0x18
 .text.motor_LEncode
                0x9d008b84       0x18 build/configRover/debug/_ext/1360937237/motor.o
                0x9d008b84                motor_LEncode

.text.motor_REncode
                0x9d008b9c       0x18
 .text.motor_REncode
                0x9d008b9c       0x18 build/configRover/debug/_ext/1360937237/motor.o
                0x9d008b9c                motor_REncode

.text.SYS_INT_Initialize
                0x9d008bb4       0x18
 .text.SYS_INT_Initialize
                0x9d008bb4       0x18 build/configRover/debug/_ext/474818461/sys_int_pic32.o
                0x9d008bb4                SYS_INT_Initialize

.text.debugCharInit
                0x9d008bcc       0x18
 .text.debugCharInit
                0x9d008bcc       0x18 build/configRover/debug/_ext/1536116519/debug.o
                0x9d008bcc                debugCharInit

.text           0x9d008be4       0x18
 .text          0x9d008be4       0x18 c:/program files (x86)/microchip/xc32/v1.40/bin/bin/../../lib/gcc/pic32mx/4.8.3/../../../../pic32mx/lib\libpic32.a(default-nmi-handler.o)
                0x9d008be4                _nmi_handler

.text.DRV_USART1_ReceiverBufferIsEmpty
                0x9d008bfc       0x14
 .text.DRV_USART1_ReceiverBufferIsEmpty
                0x9d008bfc       0x14 build/configRover/debug/_ext/1532176561/drv_usart_static.o
                0x9d008bfc                DRV_USART1_ReceiverBufferIsEmpty

.text.motor_ResetLEncodeTotal
                0x9d008c10       0x14
 .text.motor_ResetLEncodeTotal
                0x9d008c10       0x14 build/configRover/debug/_ext/1360937237/motor.o
                0x9d008c10                motor_ResetLEncodeTotal

.text.motor_ResetREncodeTotal
                0x9d008c24       0x14
 .text.motor_ResetREncodeTotal
                0x9d008c24       0x14 build/configRover/debug/_ext/1360937237/motor.o
                0x9d008c24                motor_ResetREncodeTotal

.text.SYS_DEVCON_Initialize
                0x9d008c38       0x14
 .text.SYS_DEVCON_Initialize
                0x9d008c38       0x14 build/configRover/debug/_ext/351848739/sys_devcon.o
                0x9d008c38                SYS_DEVCON_Initialize

.text.vTaskSuspendAll
                0x9d008c4c       0x14
 .text.vTaskSuspendAll
                0x9d008c4c       0x14 build/configRover/debug/_ext/184327166/tasks.o
                0x9d008c4c                vTaskSuspendAll

.text.vTaskSetTimeOutState
                0x9d008c60       0x14
 .text.vTaskSetTimeOutState
                0x9d008c60       0x14 build/configRover/debug/_ext/184327166/tasks.o
                0x9d008c60                vTaskSetTimeOutState

.text.DRV_TMR0_CounterClear
                0x9d008c74       0x10
 .text.DRV_TMR0_CounterClear
                0x9d008c74       0x10 build/configRover/debug/_ext/1797679462/drv_tmr_static.o
                0x9d008c74                DRV_TMR0_CounterClear

.text.DRV_TMR1_CounterClear
                0x9d008c84       0x10
 .text.DRV_TMR1_CounterClear
                0x9d008c84       0x10 build/configRover/debug/_ext/1797679462/drv_tmr_static.o
                0x9d008c84                DRV_TMR1_CounterClear

.text.DRV_TMR2_CounterClear
                0x9d008c94       0x10
 .text.DRV_TMR2_CounterClear
                0x9d008c94       0x10 build/configRover/debug/_ext/1797679462/drv_tmr_static.o
                0x9d008c94                DRV_TMR2_CounterClear

.text.DRV_TMR3_CounterClear
                0x9d008ca4       0x10
 .text.DRV_TMR3_CounterClear
                0x9d008ca4       0x10 build/configRover/debug/_ext/1797679462/drv_tmr_static.o
                0x9d008ca4                DRV_TMR3_CounterClear

.text.vTaskMissedYield
                0x9d008cb4       0x10
 .text.vTaskMissedYield
                0x9d008cb4       0x10 build/configRover/debug/_ext/184327166/tasks.o
                0x9d008cb4                vTaskMissedYield

.text.debugTimerTick
                0x9d008cc4       0x10
 .text.debugTimerTick
                0x9d008cc4       0x10 build/configRover/debug/_ext/1536116519/debug.o
                0x9d008cc4                debugTimerTick

.text.debugGetTime
                0x9d008cd4       0x10
 .text.debugGetTime
                0x9d008cd4       0x10 build/configRover/debug/_ext/1536116519/debug.o
                0x9d008cd4                debugGetTime

.text.__exception_handler_break
                0x9d008ce4        0xc
 .text.__exception_handler_break
                0x9d008ce4        0xc c:/program files (x86)/microchip/xc32/v1.40/bin/bin/../../lib/gcc/pic32mx/4.8.3/../../../../pic32mx/lib\software-debug-break.o
                0x9d008ce4                __exception_handler_break

.text.SYS_CLK_SystemFrequencyGet
                0x9d008cf0        0xc
 .text.SYS_CLK_SystemFrequencyGet
                0x9d008cf0        0xc build/configRover/debug/_ext/249367850/sys_clk_static.o
                0x9d008cf0                SYS_CLK_SystemFrequencyGet

.text.SYS_CLK_PeripheralFrequencyGet
                0x9d008cfc        0xc
 .text.SYS_CLK_PeripheralFrequencyGet
                0x9d008cfc        0xc build/configRover/debug/_ext/249367850/sys_clk_static.o
                0x9d008cfc                SYS_CLK_PeripheralFrequencyGet

.text.xQueueIsQueueEmptyFromISR
                0x9d008d08        0xc
 .text.xQueueIsQueueEmptyFromISR
                0x9d008d08        0xc build/configRover/debug/_ext/184327166/queue.o
                0x9d008d08                xQueueIsQueueEmptyFromISR

.text.debugTimerInit
                0x9d008d14        0xc
 .text.debugTimerInit
                0x9d008d14        0xc build/configRover/debug/_ext/1536116519/debug.o
                0x9d008d14                debugTimerInit

.text.SYS_DEVCON_Tasks
                0x9d008d20        0x8
 .text.SYS_DEVCON_Tasks
                0x9d008d20        0x8 build/configRover/debug/_ext/351848739/sys_devcon.o
                0x9d008d20                SYS_DEVCON_Tasks

.text.vPortFree
                0x9d008d28        0x8
 .text.vPortFree
                0x9d008d28        0x8 build/configRover/debug/_ext/1818123999/heap_1.o
                0x9d008d28                vPortFree

.text.vListInitialiseItem
                0x9d008d30        0x8
 .text.vListInitialiseItem
                0x9d008d30        0x8 build/configRover/debug/_ext/184327166/list.o
                0x9d008d30                vListInitialiseItem

.text._on_reset
                0x9d008d38        0x8
 .text._on_reset
                0x9d008d38        0x8 c:/program files (x86)/microchip/xc32/v1.40/bin/bin/../../lib/gcc/pic32mx/4.8.3/../../../../pic32mx/lib\libpic32.a(default-on-reset.o)
                0x9d008d38                _on_reset

.text._on_bootstrap
                0x9d008d40        0x8
 .text._on_bootstrap
                0x9d008d40        0x8 c:/program files (x86)/microchip/xc32/v1.40/bin/bin/../../lib/gcc/pic32mx/4.8.3/../../../../pic32mx/lib\libpic32.a(default-on-bootstrap.o)
                0x9d008d40                _on_bootstrap

.rodata         0x9d00637c        0x4
 .rodata        0x9d00637c        0x4 build/configRover/debug/_ext/369138285/system_init.o
                0x9d00637c                sysDevconInit

.rodata         0x9d008d48        0x4
 .rodata        0x9d008d48        0x4 build/configRover/debug/_ext/1062886388/port.o
                0x9d008d48                xISRStackTop
